{'__ZTV27CItemAttributeProgressPanel.txt': 'CItemAttributeProgressPanel', '__ZTVN5GCSDK12CProtoBufMsgI26CMsgGC_Halloween_GrantItemEE.txt': 'GCSDK::CProtoBufMsg<CMsgGC_Halloween_GrantItem>', '__ZTVN5GCSDK22CProtoBufMsgMemoryPoolI31CMsgGCStorePurchaseInitResponseEE.txt': 'GCSDK::CProtoBufMsgMemoryPool<CMsgGCStorePurchaseInitResponse>', '__ZTV19CBuildingStatusItem.txt': 'CBuildingStatusItem', '__ZTV38CAchievementTFSoldier_AchieveProgress3.txt': 'CAchievementTFSoldier_AchieveProgress3', '__ZTV30CTFQuestNotOperatorRestriction.txt': 'CTFQuestNotOperatorRestriction', '__ZTVN4vgui12ListViewItemE.txt': 'vgui::ListViewItem', '__ZTV22CTFRejoinConfirmDialog.txt': 'CTFRejoinConfirmDialog', '__ZTV19CHudHistoryResource.txt': 'CHudHistoryResource', '__ZTV21C_PointCommentaryNode.txt': 'C_PointCommentaryNode', '__ZTV27C_INIT_RandomSecondSequence.txt': 'C_INIT_RandomSecondSequence', '__ZTV14C_CurrencyPack.txt': 'C_CurrencyPack', '__ZTVN5GCSDK22CProtoBufMsgMemoryPoolI44CMsgGC_Client2GCEconPreviewDataBlockResponseEE.txt': 'GCSDK::CProtoBufMsgMemoryPool<CMsgGC_Client2GCEconPreviewDataBlockResponse>', '__ZTV13CTFStorePage2.txt': 'CTFStorePage2', '__ZTV13CTFViewRender.txt': 'CTFViewRender', '__ZTVN5GCSDK12CProtoBufMsgI22CMsgGCClientMarketDataEE.txt': 'GCSDK::CProtoBufMsg<CMsgGCClientMarketData>', '__ZTV31CAchievementTFMedic_AssistMedic.txt': 'CAchievementTFMedic_AssistMedic', '__ZTV17CClientLeafSystem.txt': 'CClientLeafSystem', '__ZTV17C_OP_NoiseEmitter.txt': 'C_OP_NoiseEmitter', '__ZTV27CAchievementTFGetHealPoints.txt': 'CAchievementTFGetHealPoints', '__ZTVN8CryptoPP14SourceTemplateINS_11StringStoreEEE.txt': 'CryptoPP::SourceTemplate<CryptoPP::StringStore>', '__ZTV19C_TFWeaponBaseMelee.txt': 'C_TFWeaponBaseMelee', '__ZTV17CExplosionOverlay.txt': 'CExplosionOverlay', '__ZTV49CAchievementTFHalloweenHelltowerSkullIslandReward.txt': 'CAchievementTFHalloweenHelltowerSkullIslandReward', '__ZTV16C_TFLaserPointer.txt': 'C_TFLaserPointer', '__ZTV17CMsgClientWelcome.txt': 'CMsgClientWelcome', '__ZTV9CCallbackIN4vgui4HTMLE21HTML_LinkAtPosition_tLb0EE.txt': 'CCallback<vgui::HTML, HTML_LinkAtPosition_t, false>', '__ZTVN12_GLOBAL__N_116CaptionGripPanelE.txt': '(anonymous namespace)::CaptionGripPanel', '__ZTV27CTFQuestOperatorRestriction.txt': 'CTFQuestOperatorRestriction', '__ZTV11CTextWindow.txt': 'CTextWindow', '__ZTV27CEquipSpellbookNotification.txt': 'CEquipSpellbookNotification', '__ZTV33CAchievementTFHeavy_KillDominated.txt': 'CAchievementTFHeavy_KillDominated', '__ZTV15C_TFCompoundBow.txt': 'C_TFCompoundBow', '__ZTVN8CryptoPP9BitBucketE.txt': 'CryptoPP::BitBucket', '__ZTV22C_BaseAttributableItem.txt': 'C_BaseAttributableItem', '__ZTV40CMsgGCMsgMasterSetWebAPIRouting_Response.txt': 'CMsgGCMsgMasterSetWebAPIRouting_Response', '__ZTV11CModelPanel.txt': 'CModelPanel', '__ZTV22CMsgGCGetEmailTemplate.txt': 'CMsgGCGetEmailTemplate', '__ZTV24CConfirmDeleteItemDialog.txt': 'CConfirmDeleteItemDialog', '__ZTV27CParticleOperatorDefinitionI16C_OP_RandomForceE.txt': 'CParticleOperatorDefinition<C_OP_RandomForce>', '__ZTVN8CryptoPP11StringStoreE.txt': 'CryptoPP::StringStore', '__ZTV27CParticleOperatorDefinitionI20C_OP_TwistAroundAxisE.txt': 'CParticleOperatorDefinition<C_OP_TwistAroundAxis>', '__ZTV19CSOEconItemEquipped.txt': 'CSOEconItemEquipped', '__ZTV26CMsgGCNameItemNotification.txt': 'CMsgGCNameItemNotification', '__ZTVN4vgui11RadioButtonE.txt': 'vgui::RadioButton', '__ZTV18CStoreStatusDialog.txt': 'CStoreStatusDialog', '__ZTV25C_TeamplayRoundBasedRules.txt': 'C_TeamplayRoundBasedRules', '__ZTV16CGSaxxyBroadcast.txt': 'CGSaxxyBroadcast', '__ZTV9C_TEDecal.txt': 'C_TEDecal', '__ZTV17CReplayMessageDlg.txt': 'CReplayMessageDlg', '__ZTV9CCallbackI19CClientSteamContext27SteamServerConnectFailure_tLb0EE.txt': 'CCallback<CClientSteamContext, SteamServerConnectFailure_t, false>', '__ZTV30CAchievementTFScout_FirstBlood.txt': 'CAchievementTFScout_FirstBlood', '__ZTV32C_TFWeaponPDAExpansion_Dispenser.txt': 'C_TFWeaponPDAExpansion_Dispenser', '__ZTV26CAchievementTFGetHeadshots.txt': 'CAchievementTFGetHeadshots', '__ZTV32CTFHudRobotDestruction_DeadImage.txt': 'CTFHudRobotDestruction_DeadImage', '__ZTV20C_TFPipebombLauncher.txt': 'C_TFPipebombLauncher', '__ZTV37CMsgGCMsgMasterSetWebAPIRouting_Entry.txt': 'CMsgGCMsgMasterSetWebAPIRouting_Entry', '__ZTV15CRotationSlider.txt': 'CRotationSlider', '__ZTV11CCvarSlider.txt': 'CCvarSlider', '__ZTV10CSOTFParty.txt': 'CSOTFParty', '__ZTV12CTFCondition.txt': 'CTFCondition', '__ZTV6C_Fish.txt': 'C_Fish', '__ZTV15CTestItemDialog.txt': 'CTestItemDialog', '__ZTV39CAchievementTFEngineer_KillDisguisedSpy.txt': 'CAchievementTFEngineer_KillDisguisedSpy', '__ZTVN5GCSDK12CProtoBufMsgI31CMsgTFCoaching_AskCoachResponseEE.txt': 'GCSDK::CProtoBufMsg<CMsgTFCoaching_AskCoachResponse>', '__ZTV31CAchievementTFSniper_Pincushion.txt': 'CAchievementTFSniper_Pincushion', '__ZTVN5GCSDK6CGCMsgI12MsgGCEmpty_tEE.txt': 'GCSDK::CGCMsg<MsgGCEmpty_t>', '__ZTV23CEntityDataInstantiatorI18StepSimulationDataE.txt': 'CEntityDataInstantiator<StepSimulationData>', '__ZTV22IDroppedWeaponAutoList.txt': 'IDroppedWeaponAutoList', '__ZTV36CAchievementTFFoundry_PushBackAndWin.txt': 'CAchievementTFFoundry_PushBackAndWin', '__ZTV39CAchievementTFEngineer_AchieveProgress2.txt': 'CAchievementTFEngineer_AchieveProgress2', '__ZTVN4vgui23ScrollableEditablePanelE.txt': 'vgui::ScrollableEditablePanel', '__ZTV35CAchievementTFPyro_BurnSappingSpies.txt': 'CAchievementTFPyro_BurnSappingSpies', '__ZTVN5GCSDK12CProtoBufMsgI27CMsgTFCoaching_AddToCoachesEE.txt': 'GCSDK::CProtoBufMsg<CMsgTFCoaching_AddToCoaches>', '__ZTV27CParticleOperatorDefinitionI14C_OP_PlaneCullE.txt': 'CParticleOperatorDefinition<C_OP_PlaneCull>', '__ZTV20CHudMainMenuOverride.txt': 'CHudMainMenuOverride', '__ZTV33CMsgGCMsgMasterSetDirectory_SubGC.txt': 'CMsgGCMsgMasterSetDirectory_SubGC', '__ZTV27CParticleOperatorDefinitionI20C_OP_RemapCPtoScalarE.txt': 'CParticleOperatorDefinition<C_OP_RemapCPtoScalar>', '__ZTV12C_TFBaseBoss.txt': 'C_TFBaseBoss', '__ZTV40CAchievementTFDemoman_StickyJumpDistance.txt': 'CAchievementTFDemoman_StickyJumpDistance', '__ZTVN5GCSDK22CProtoBufMsgMemoryPoolI26CMsgCraftCollectionUpgradeEE.txt': 'GCSDK::CProtoBufMsgMemoryPool<CMsgCraftCollectionUpgrade>', '__ZTVN4vgui12PropertyPageE.txt': 'vgui::PropertyPage', '__ZTVN5GCSDK22CProtoBufMsgMemoryPoolI35CMsgGCStorePurchaseFinalizeResponseEE.txt': 'GCSDK::CProtoBufMsgMemoryPool<CMsgGCStorePurchaseFinalizeResponse>', '__ZTV14CTFPVEWinPanel.txt': 'CTFPVEWinPanel', '__ZTV31CMsgSetItemEffectVerticalOffset.txt': 'CMsgSetItemEffectVerticalOffset', '__ZTV10C_Hairball.txt': 'C_Hairball', '__ZTV24CStorePricePanel_Popular.txt': 'CStorePricePanel_Popular', '__ZTV19CObjectControlPanel.txt': 'CObjectControlPanel', '__ZTV20CMsgStoreGetUserData.txt': 'CMsgStoreGetUserData', '__ZTV22CStorePreviewItemPanel.txt': 'CStorePreviewItemPanel', '__ZTV36CMsgNotificationOfSuspiciousActivity.txt': 'CMsgNotificationOfSuspiciousActivity', '__ZTV11fogparams_t.txt': 'fogparams_t', '__ZTV35CAchievementTFHeavy_KillWithShotgun.txt': 'CAchievementTFHeavy_KillWithShotgun', '__ZTV42CAchievementTF_MvM_Medic_ShieldBlockDamage.txt': 'CAchievementTF_MvM_Medic_ShieldBlockDamage', '__ZTV38CAchievementTFDoomsday_PlayGameFriends.txt': 'CAchievementTFDoomsday_PlayGameFriends', '__ZTV19IGameSystemPerFrame.txt': 'IGameSystemPerFrame', '__ZTV32CAchievementTFDemoman_ChargeKill.txt': 'CAchievementTFDemoman_ChargeKill', '__ZTV20CYouTubeUploadDialog.txt': 'CYouTubeUploadDialog', '__ZTV19CMvMBossProgressBar.txt': 'CMvMBossProgressBar', '__ZTV43CMsgGC_GameServer_UseServerModificationItem.txt': 'CMsgGC_GameServer_UseServerModificationItem', '__ZTV35CConfirmUseItemEaterRechargerDialog.txt': 'CConfirmUseItemEaterRechargerDialog', '__ZTV12C_TFFlareGun.txt': 'C_TFFlareGun', '__ZTV11CInvisProxy.txt': 'CInvisProxy', '__ZTV16CHudCloseCaption.txt': 'CHudCloseCaption', '__ZTVN14PrecacheInvuln20ClientEffectRegisterE.txt': 'PrecacheInvuln::ClientEffectRegister', '__ZTVN4vgui13EditablePanelE.txt': 'vgui::EditablePanel', '__ZTV20C_TEClientProjectile.txt': 'C_TEClientProjectile', '__ZTV28CAchievementTFGetTurretKills.txt': 'CAchievementTFGetTurretKills', '__ZTV23CManagedDataCacheClientI18AsyncCaptionData_t20asynccaptionparams_tPS0_E.txt': 'CManagedDataCacheClient<AsyncCaptionData_t, asynccaptionparams_t, AsyncCaptionData_t*>', '__ZTV26CBuildingStatusItem_Sapper.txt': 'CBuildingStatusItem_Sapper', '__ZTV27CParticleOperatorDefinitionI26C_OP_VelocityMatchingForceE.txt': 'CParticleOperatorDefinition<C_OP_VelocityMatchingForce>', '__ZTV35CAchievementTFPyro_AxeKillsNoDeaths.txt': 'CAchievementTFPyro_AxeKillsNoDeaths', '__ZTV13CHudStalemate.txt': 'CHudStalemate', '__ZTV18CTFHudPlayerStatus.txt': 'CTFHudPlayerStatus', '__ZTV22C_TFSniperRifleClassic.txt': 'C_TFSniperRifleClassic', '__ZTV12CLCDItemText.txt': 'CLCDItemText', '__ZTVN5GCSDK12CProtoBufMsgI23CMsgTFCoaching_AskCoachEE.txt': 'GCSDK::CProtoBufMsg<CMsgTFCoaching_AskCoach>', '__ZTV16C_GameRulesProxy.txt': 'C_GameRulesProxy', '__ZTV22CTFUseItemNotification.txt': 'CTFUseItemNotification', '__ZTV13CCallbackImplILi4EE.txt': 'CCallbackImpl<4>', '__ZTVN12_GLOBAL__N_19GripPanelE.txt': '(anonymous namespace)::GripPanel', '__ZTV43CConfirmStrangeRestrictionApplicationDialog.txt': 'CConfirmStrangeRestrictionApplicationDialog', '__ZTV27CDefaultParticleSystemQuery.txt': 'CDefaultParticleSystemQuery', '__ZTV9CIntProxy.txt': 'CIntProxy', '__ZTV26CControlPointIconPulseable.txt': 'CControlPointIconPulseable', '__ZTV58CMsgNotificationOfSuspiciousActivity_MultipleGameInstances.txt': 'CMsgNotificationOfSuspiciousActivity_MultipleGameInstances', '__ZTV31CAchievementTFHalloweenBossKill.txt': 'CAchievementTFHalloweenBossKill', '__ZTV39CMsgGC_GameServer_AuthChallengeResponse.txt': 'CMsgGC_GameServer_AuthChallengeResponse', '__ZTV13C_TFThrowable.txt': 'C_TFThrowable', '__ZTV39CSchemaAttributeType_WorldItemPlacement.txt': 'CSchemaAttributeType_WorldItemPlacement', '__ZTV30CTraceFilterNoCombatCharacters.txt': 'CTraceFilterNoCombatCharacters', '__ZTVN5GCSDK12CProtoBufMsgI27CMsgApplyStrangeRestrictionEE.txt': 'GCSDK::CProtoBufMsg<CMsgApplyStrangeRestriction>', '__ZTV19CMvMBossStatusPanel.txt': 'CMvMBossStatusPanel', '__ZTV40CAchievementTFHalloweenDoomsdayKillKarts.txt': 'CAchievementTFHalloweenDoomsdayKillKarts', '__ZTV17CAvatarImagePanel.txt': 'CAvatarImagePanel', '__ZTV16C_RagdollManager.txt': 'C_RagdollManager', '__ZTV26CHudItemEffectMeter_WeaponI12C_TFBat_WoodE.txt': 'CHudItemEffectMeter_Weapon<C_TFBat_Wood>', '__ZTV29CGCClientAcceptInviteResponse.txt': 'CGCClientAcceptInviteResponse', '__ZTV25CGCClientJobClientGoodbye.txt': 'CGCClientJobClientGoodbye', '__ZTV16CWeaponSkinProxy.txt': 'CWeaponSkinProxy', '__ZTV36CAchievementTFScout_AchieveProgress3.txt': 'CAchievementTFScout_AchieveProgress3', '__ZTV38CMsgGCToGCGetUserServerMembersResponse.txt': 'CMsgGCToGCGetUserServerMembersResponse', '__ZTV18C_INIT_RandomAlpha.txt': 'C_INIT_RandomAlpha', '__ZTV28CAchievementTFMedic_HealHuge.txt': 'CAchievementTFMedic_HealHuge', '__ZTV14CEnvWindShared.txt': 'CEnvWindShared', '__ZTVN4vgui18FileCompletionEditE.txt': 'vgui::FileCompletionEdit', '__ZTV28C_TFRocketLauncher_AirStrike.txt': 'C_TFRocketLauncher_AirStrike', '__ZTV19CEconItemViewHandle.txt': 'CEconItemViewHandle', '__ZTV13C_EntityFlame.txt': 'C_EntityFlame', '__ZTV40CAchievementTFEngineer_KillSnipersSentry.txt': 'CAchievementTFEngineer_KillSnipersSentry', '__ZTV14CItemSlotPanel.txt': 'CItemSlotPanel', '__ZTV12C_HLTVCamera.txt': 'C_HLTVCamera', '__ZTV38CConfirmSpellbookPageApplicationDialog.txt': 'CConfirmSpellbookPageApplicationDialog', '__ZTV19CYouTubeLoginDialog.txt': 'CYouTubeLoginDialog', '__ZTV12C_TFTankBoss.txt': 'C_TFTankBoss', '__ZTV21CPlayerTeamMatchProxy.txt': 'CPlayerTeamMatchProxy', '__ZTV20CTFStatsSummaryPanel.txt': 'CTFStatsSummaryPanel', '__ZTV51CAchievementTF_MvM_Maps_Manhattan_KillStunRadiowave.txt': 'CAchievementTF_MvM_Maps_Manhattan_KillStunRadiowave', '__ZTV33CAchievementTFWin2FortNoEnemyCaps.txt': 'CAchievementTFWin2FortNoEnemyCaps', '__ZTV23CYouTubeGetStatsHandler.txt': 'CYouTubeGetStatsHandler', '__ZTV9CEconItem.txt': 'CEconItem', '__ZTV11C_TFBonesaw.txt': 'C_TFBonesaw', '__ZTVN5GCSDK12CProtoBufMsgI32CMsgGC_GameServer_CreateIdentityEE.txt': 'GCSDK::CProtoBufMsg<CMsgGC_GameServer_CreateIdentity>', '__ZTV13audioparams_t.txt': 'audioparams_t', '__ZTV30CEntitySaveRestoreBlockHandler.txt': 'CEntitySaveRestoreBlockHandler', '__ZTV26CHudItemEffectMeter_WeaponI13C_TFThrowableE.txt': 'CHudItemEffectMeter_Weapon<C_TFThrowable>', '__ZTV14C_DynamicLight.txt': 'C_DynamicLight', '__ZTV16CYouTubeLoginJob.txt': 'CYouTubeLoginJob', '__ZTV31CAchievementTFStandin_WinRounds.txt': 'CAchievementTFStandin_WinRounds', '__ZTV25C_TFWeaponAttachmentModel.txt': 'C_TFWeaponAttachmentModel', '__ZTV24C_TFProjectile_Throwable.txt': 'C_TFProjectile_Throwable', '__ZTV31CMsgAMGrantGuestPasses2Response.txt': 'CMsgAMGrantGuestPasses2Response', '__ZTV25CMsgSetPresetItemPosition.txt': 'CMsgSetPresetItemPosition', '__ZTV30DelayedSchemaData_GCDirectData.txt': 'DelayedSchemaData_GCDirectData', '__ZTV30CAchievementTFSpy_SpyTauntKill.txt': 'CAchievementTFSpy_SpyTauntKill', '__ZTV22CGCMsgSQLStatsResponse.txt': 'CGCMsgSQLStatsResponse', '__ZTVN5GCSDK21CProtoBufSharedObjectI20CSOTFMapContributionLi28EEE.txt': 'GCSDK::CProtoBufSharedObject<CSOTFMapContribution, 28>', '__ZTVN8CryptoPP11BlockingRngE.txt': 'CryptoPP::BlockingRng', '__ZTV31C_INIT_InitialRepulsionVelocity.txt': 'C_INIT_InitialRepulsionVelocity', '__ZTV17CPoseDebuggerImpl.txt': 'CPoseDebuggerImpl', '__ZTVN5GCSDK6CGCMsgI21MsgGCRemoveItemName_tEE.txt': 'GCSDK::CGCMsg<MsgGCRemoveItemName_t>', '__ZTVN5GCSDK12CProtoBufMsgI33CMsgTFCoaching_RemoveCurrentCoachEE.txt': 'GCSDK::CProtoBufMsg<CMsgTFCoaching_RemoveCurrentCoach>', '__ZTV21CCraftingStatusDialog.txt': 'CCraftingStatusDialog', '__ZTV14CLampBeamProxy.txt': 'CLampBeamProxy', '__ZTV41CAchievementTFPowerhouse_KillEnemyInWater.txt': 'CAchievementTFPowerhouse_KillEnemyInWater', '__ZTV14CFloatProperty.txt': 'CFloatProperty', '__ZTV27CParticleOperatorDefinitionI18C_INIT_RemapScalarE.txt': 'CParticleOperatorDefinition<C_INIT_RemapScalar>', '__ZTV22SCustomImageCacheEntry.txt': 'SCustomImageCacheEntry', '__ZTV11CProxyIsNPC.txt': 'CProxyIsNPC', '__ZTV43CAchievementTFPyro_IgnitePlayerBeingFlipped.txt': 'CAchievementTFPyro_IgnitePlayerBeingFlipped', '__ZTV15IHasBuildPoints.txt': 'IHasBuildPoints', '__ZTV14CCriticalPanel.txt': 'CCriticalPanel', '__ZTV17CTFGCClientSystem.txt': 'CTFGCClientSystem', '__ZTV22CMsgGCToGCPingResponse.txt': 'CMsgGCToGCPingResponse', '__ZTVN6google8protobuf30DescriptorProto_ExtensionRangeE.txt': 'google::protobuf::DescriptorProto_ExtensionRange', '__ZTV33CAttribute_DynamicRecipeComponent.txt': 'CAttribute_DynamicRecipeComponent', '__ZTV19CLoadoutPresetPanel.txt': 'CLoadoutPresetPanel', '__ZTV14C_BasePropDoor.txt': 'C_BasePropDoor', '__ZTVN8CryptoPP14NonblockingRngE.txt': 'CryptoPP::NonblockingRng', '__ZTV42CAchievementTFDemoman_DecapitateCloakedSpy.txt': 'CAchievementTFDemoman_DecapitateCloakedSpy', '__ZTV16C_MerasmusDancer.txt': 'C_MerasmusDancer', '__ZTV27CParticleOperatorDefinitionI17C_OP_RenderPointsE.txt': 'CParticleOperatorDefinition<C_OP_RenderPoints>', '__ZTV15C_TFSniperRifle.txt': 'C_TFSniperRifle', '__ZTV17CSchemeVisualizer.txt': 'CSchemeVisualizer', '__ZTV19CKeyValueLabelPanel.txt': 'CKeyValueLabelPanel', '__ZTV42CAchievementTFSoldier_DefendCapThirtyTimes.txt': 'CAchievementTFSoldier_DefendCapThirtyTimes', '__ZTV12C_TFBuffItem.txt': 'C_TFBuffItem', '__ZTVN5GCSDK22CProtoBufMsgMemoryPoolI23CMsgGCStorePurchaseInitEE.txt': 'GCSDK::CProtoBufMsgMemoryPool<CMsgGCStorePurchaseInit>', '__ZTV19CBuildingInvisProxy.txt': 'CBuildingInvisProxy', '__ZTVN4vgui5LabelE.txt': 'vgui::Label', '__ZTV17C_EnvScreenEffect.txt': 'C_EnvScreenEffect', '__ZTV34CAchievementTFSoldier_FreezeTaunts.txt': 'CAchievementTFSoldier_FreezeTaunts', '__ZTV13CMessageChars.txt': 'CMessageChars', '__ZTV36CAchievementTFSpy_SpyKillCPDefenders.txt': 'CAchievementTFSpy_SpyKillCPDefenders', '__ZTV25CQuestObjectiveDefinition.txt': 'CQuestObjectiveDefinition', '__ZTV28C_OP_SetControlPointToCenter.txt': 'C_OP_SetControlPointToCenter', '__ZTVN4vgui9ListPanelE.txt': 'vgui::ListPanel', '__ZTVN5GCSDK6CGCMsgI28MsgGCTrading_CancelSession_tEE.txt': 'GCSDK::CGCMsg<MsgGCTrading_CancelSession_t>', '__ZTV18C_TeamTrainWatcher.txt': 'C_TeamTrainWatcher', '__ZTV31C_OP_RenderScreenVelocityRotate.txt': 'C_OP_RenderScreenVelocityRotate', '__ZTV16CHudDemomanPipes.txt': 'CHudDemomanPipes', '__ZTV12CBaseHudChat.txt': 'CBaseHudChat', '__ZTVN14C_RopeKeyframe16CPhysicsDelegateE.txt': 'C_RopeKeyframe::CPhysicsDelegate', '__ZTV13CDrawingPanel.txt': 'CDrawingPanel', '__ZTV11C_BossAlpha.txt': 'C_BossAlpha', '__ZTV14CTFHudTraining.txt': 'CTFHudTraining', '__ZTV22C_TFProjectile_Cleaver.txt': 'C_TFProjectile_Cleaver', '__ZTV26CHudItemEffectMeter_WeaponI10C_TFRaygunE.txt': 'CHudItemEffectMeter_Weapon<C_TFRaygun>', '__ZTV18CMsgProtoBufHeader.txt': 'CMsgProtoBufHeader', '__ZTV28CMsgStoreGetUserDataResponse.txt': 'CMsgStoreGetUserDataResponse', '__ZTV32CAchievementTFPyro_BurnSpiesAsMe.txt': 'CAchievementTFPyro_BurnSpiesAsMe', '__ZTV21CClientVirtualReality.txt': 'CClientVirtualReality', '__ZTV26CHudItemEffectMeter_WeaponI17C_TFPowerupBottleE.txt': 'CHudItemEffectMeter_Weapon<C_TFPowerupBottle>', '__ZTV8C_TFTeam.txt': 'C_TFTeam', '__ZTV18CTeamMaterialProxy.txt': 'CTeamMaterialProxy', '__ZTV41CAttributeIterator_GetTypedAttributeValueI17CAttribute_StringS0_E.txt': 'CAttributeIterator_GetTypedAttributeValue<CAttribute_String, CAttribute_String>', '__ZTV17CMvMWaveLossPanel.txt': 'CMvMWaveLossPanel', '__ZTV38CAchievementTFDoomsday_RideTheElevator.txt': 'CAchievementTFDoomsday_RideTheElevator', '__ZTV26C_OP_VelocityMatchingForce.txt': 'C_OP_VelocityMatchingForce', '__ZTV28CSOTFPartyInvite_PartyMember.txt': 'CSOTFPartyInvite_PartyMember', '__ZTVN5GCSDK12CProtoBufMsgI23CMsgSOCacheUnsubscribedEE.txt': 'GCSDK::CProtoBufMsg<CMsgSOCacheUnsubscribed>', '__ZTV16CMsgGCClientPing.txt': 'CMsgGCClientPing', '__ZTV9CTFFooter.txt': 'CTFFooter', '__ZTVN8CryptoPP11BlockCipherE.txt': 'CryptoPP::BlockCipher', '__ZTV29CEconTool_ClassTransmogrifier.txt': 'CEconTool_ClassTransmogrifier', '__ZTVN5GCSDK22CProtoBufMsgMemoryPoolI21CMsgSOCacheSubscribedEE.txt': 'GCSDK::CProtoBufMsgMemoryPool<CMsgSOCacheSubscribed>', '__ZTV15C_TEBloodStream.txt': 'C_TEBloodStream', '__ZTV14CExImageButton.txt': 'CExImageButton', '__ZTV9C_TFFists.txt': 'C_TFFists', '__ZTV47CAchievementTFScout_BackscatterKillFriendsGrind.txt': 'CAchievementTFScout_BackscatterKillFriendsGrind', '__ZTV28CGCClientMatchmakingProgress.txt': 'CGCClientMatchmakingProgress', '__ZTV6CInput.txt': 'CInput', '__ZTVN5GCSDK22CProtoBufMsgMemoryPoolI17CMsgClientGoodbyeEE.txt': 'GCSDK::CProtoBufMsgMemoryPool<CMsgClientGoodbye>', '__ZTV19CReplayRenderDialog.txt': 'CReplayRenderDialog', '__ZTVN4vgui15BaseInputDialogE.txt': 'vgui::BaseInputDialog', '__ZTVN4vgui17FrameSystemButtonE.txt': 'vgui::FrameSystemButton', '__ZTV28C_ParticlePerformanceMonitor.txt': 'C_ParticlePerformanceMonitor', '__ZTV29CAchievementTFHeavy_KillTaunt.txt': 'CAchievementTFHeavy_KillTaunt', '__ZTV25CMsgAMGetLicensesResponse.txt': 'CMsgAMGetLicensesResponse', '__ZTV31CAchievementTF_MvM_SpySapRobots.txt': 'CAchievementTF_MvM_SpySapRobots', '__ZTV33CAchievementTFSoldier_RideTheCart.txt': 'CAchievementTFSoldier_RideTheCart', '__ZTV15C_TFWeaponInvis.txt': 'C_TFWeaponInvis', '__ZTV47CGCMsgGC_PlayerDuckLeaderboard_IndividualUpdate.txt': 'CGCMsgGC_PlayerDuckLeaderboard_IndividualUpdate', '__ZTV16CFreezeFrameView.txt': 'CFreezeFrameView', '__ZTV12C_TEBSPDecal.txt': 'C_TEBSPDecal', '__ZTVN5GCSDK22CProtoBufMsgMemoryPoolI29CMsgSetHatEffectUseHeadOriginEE.txt': 'GCSDK::CProtoBufMsgMemoryPool<CMsgSetHatEffectUseHeadOrigin>', '__ZTV23CMsgGCShowItemsPickedUp.txt': 'CMsgGCShowItemsPickedUp', '__ZTV36CAchievementTFSniper_BaseJarateGroup.txt': 'CAchievementTFSniper_BaseJarateGroup', '__ZTVN4vgui14PanelListPanelE.txt': 'vgui::PanelListPanel', '__ZTV38CAchievementTFDemoman_AchieveProgress1.txt': 'CAchievementTFDemoman_AchieveProgress1', '__ZTVN4vgui19RotatingProgressBarE.txt': 'vgui::RotatingProgressBar', '__ZTV27CParticleOperatorDefinitionI32C_INIT_CreateFromParentParticlesE.txt': 'CParticleOperatorDefinition<C_INIT_CreateFromParentParticles>', '__ZTV31CMsgTFCoaching_AskCoachResponse.txt': 'CMsgTFCoaching_AskCoachResponse', '__ZTV27CParticleOperatorDefinitionI28C_OP_RemapDotProductToScalarE.txt': 'CParticleOperatorDefinition<C_OP_RemapDotProductToScalar>', '__ZTV26CSelectFirstIfNonZeroProxy.txt': 'CSelectFirstIfNonZeroProxy', '__ZTVN5GCSDK12CProtoBufMsgI28CMsgTFQuickplay_ScoreServersEE.txt': 'GCSDK::CProtoBufMsg<CMsgTFQuickplay_ScoreServers>', '__ZTV26C_OP_AttractToControlPoint.txt': 'C_OP_AttractToControlPoint', '__ZTV14CHudTeamSwitch.txt': 'CHudTeamSwitch', '__ZTVN8CryptoPP18DERSequenceEncoderE.txt': 'CryptoPP::DERSequenceEncoder', '__ZTV32CAchievementTFMedic_HealEngineer.txt': 'CAchievementTFMedic_HealEngineer', '__ZTV27CParticleOperatorDefinitionI23C_INIT_SequenceLifeTimeE.txt': 'CParticleOperatorDefinition<C_INIT_SequenceLifeTime>', '__ZTV17CTFQuestEvaluator.txt': 'CTFQuestEvaluator', '__ZTV39CMsgTFRequestDefaultChatChannelResponse.txt': 'CMsgTFRequestDefaultChatChannelResponse', '__ZTV26CEconTool_BackpackExpander.txt': 'CEconTool_BackpackExpander', '__ZTV20CHudArenaPlayerCount.txt': 'CHudArenaPlayerCount', '__ZTV18CLocalPlayerFilter.txt': 'CLocalPlayerFilter', '__ZTV33CAchievementTFMedic_ChargeFriends.txt': 'CAchievementTFMedic_ChargeFriends', '__ZTV27CParticleOperatorDefinitionI24C_INIT_MoveBetweenPointsE.txt': 'CParticleOperatorDefinition<C_INIT_MoveBetweenPoints>', '__ZTVN6google8protobuf8internal15ExtensionFinderE.txt': 'google::protobuf::internal::ExtensionFinder', '__ZTV20CCurrencyStatusPanel.txt': 'CCurrencyStatusPanel', '__ZTV12CProxyHealth.txt': 'CProxyHealth', '__ZTV27CParticleOperatorDefinitionI18C_INIT_RandomAlphaE.txt': 'CParticleOperatorDefinition<C_INIT_RandomAlpha>', '__ZTVN5GCSDK22CProtoBufMsgMemoryPoolI38CMsgLookupMultipleAccountNamesResponseEE.txt': 'GCSDK::CProtoBufMsgMemoryPool<CMsgLookupMultipleAccountNamesResponse>', '__ZTV20C_PhysPropClientside.txt': 'C_PhysPropClientside', '__ZTV18CBloodSprayEmitter.txt': 'CBloodSprayEmitter', '__ZTV31CMsgGCHUpdateSession_ExtraField.txt': 'CMsgGCHUpdateSession_ExtraField', '__ZTV15CProxyBurnLevel.txt': 'CProxyBurnLevel', '__ZTV17CClientSideEffect.txt': 'CClientSideEffect', '__ZTV30CAchievementTFHeavy_KillScouts.txt': 'CAchievementTFHeavy_KillScouts', '__ZTV27CAchievementTFTaunt_RPSRock.txt': 'CAchievementTFTaunt_RPSRock', '__ZTV26C_TFPlayerDestructionLogic.txt': 'C_TFPlayerDestructionLogic', '__ZTV27CParticleOperatorDefinitionI20C_INIT_CreateOnModelE.txt': 'CParticleOperatorDefinition<C_INIT_CreateOnModel>', '__ZTV18C_TFLunchBox_Drink.txt': 'C_TFLunchBox_Drink', '__ZTVN5GCSDK22CProtoBufMsgMemoryPoolI26CMsgGCNameItemNotificationEE.txt': 'GCSDK::CProtoBufMsgMemoryPool<CMsgGCNameItemNotification>', '__ZTV35CAchievementTFSniper_ParachuteGrind.txt': 'CAchievementTFSniper_ParachuteGrind', '__ZTV27CParticleOperatorDefinitionI21C_INIT_RandomLifeTimeE.txt': 'CParticleOperatorDefinition<C_INIT_RandomLifeTime>', '__ZTVN5GCSDK26CGCClientSharedObjectCacheE.txt': 'GCSDK::CGCClientSharedObjectCache', '__ZTV24CHudItemEffectMeter_Rune.txt': 'CHudItemEffectMeter_Rune', '__ZTV22CTFMapStampsInfoDialog.txt': 'CTFMapStampsInfoDialog', '__ZTV37CGCCoaching_RemoveFromCoachesResponse.txt': 'CGCCoaching_RemoveFromCoachesResponse', '__ZTV45CAchievementTFHalloweenHelltowerSkeletonGrind.txt': 'CAchievementTFHalloweenHelltowerSkeletonGrind', '__ZTV26C_OP_SetChildControlPoints.txt': 'C_OP_SetChildControlPoints', '__ZTV16C_FuncTrackTrain.txt': 'C_FuncTrackTrain', '__ZTV19C_EnvParticleScript.txt': 'C_EnvParticleScript', '__ZTV27CParticleOperatorDefinitionI10C_OP_NoiseE.txt': 'CParticleOperatorDefinition<C_OP_Noise>', '__ZTV29C_TFGrenadePipebombProjectile.txt': 'C_TFGrenadePipebombProjectile', '__ZTV17CDucksLeaderboard.txt': 'CDucksLeaderboard', '__ZTVN20CEconItemDescription29CRecipeNameAttributeDisplayerE.txt': 'CEconItemDescription::CRecipeNameAttributeDisplayer', '__ZTV17CInventoryManager.txt': 'CInventoryManager', '__ZTV27CParticleOperatorDefinitionI31C_OP_RenderScreenVelocityRotateE.txt': 'CParticleOperatorDefinition<C_OP_RenderScreenVelocityRotate>', '__ZTV17C_PasstimeReticle.txt': 'C_PasstimeReticle', '__ZTV13CPanelFactoryI9CPDAPanel20VGuiScreenInitData_tE.txt': 'CPanelFactory<CPDAPanel, VGuiScreenInitData_t>', '__ZTV34CAchievementTFSniper_DestroySentry.txt': 'CAchievementTFSniper_DestroySentry', '__ZTV46CEconItemAttributeIterator_ApplyAttributeFloat.txt': 'CEconItemAttributeIterator_ApplyAttributeFloat', '__ZTVN4vgui8ComboBoxE.txt': 'vgui::ComboBox', '__ZTVN8CryptoPP12MessageQueueE.txt': 'CryptoPP::MessageQueue', '__ZTV44CGameItemDefinition_EconItemInterfaceWrapper.txt': 'CGameItemDefinition_EconItemInterfaceWrapper', '__ZTV9CCallbackIN4vgui4HTMLE17HTML_StatusText_tLb0EE.txt': 'CCallback<vgui::HTML, HTML_StatusText_t, false>', '__ZTV17CMoveHelperClient.txt': 'CMoveHelperClient', '__ZTV14CExampleEffect.txt': 'CExampleEffect', '__ZTV26C_TFProjectile_HealingBolt.txt': 'C_TFProjectile_HealingBolt', '__ZTV39CAchievementTFHalloweenDisguisedSpyKill.txt': 'CAchievementTFHalloweenDisguisedSpyKill', '__ZTVN4vgui11CheckButtonE.txt': 'vgui::CheckButton', '__ZTV19CBoundedCvar_Interp.txt': 'CBoundedCvar_Interp', '__ZTV26CEconTool_CustomizeTexture.txt': 'CEconTool_CustomizeTexture', '__ZTV29CAchievementTFScout_TauntKill.txt': 'CAchievementTFScout_TauntKill', '__ZTV20CConfirmDeleteDialog.txt': 'CConfirmDeleteDialog', '__ZTVN8CryptoPP15SelfTestFailureE.txt': 'CryptoPP::SelfTestFailure', '__ZTV9CCallbackI15CAchievementMgr19UserStatsReceived_tLb0EE.txt': 'CCallback<CAchievementMgr, UserStatsReceived_t, false>', '__ZTV11CYouTubeJob.txt': 'CYouTubeJob', '__ZTV27CParticleOperatorDefinitionI21C_INIT_PositionOffsetE.txt': 'CParticleOperatorDefinition<C_INIT_PositionOffset>', '__ZTV20CMaterialModifyProxy.txt': 'CMaterialModifyProxy', '__ZTVN8CryptoPP7X917RNGE.txt': 'CryptoPP::X917RNG', '__ZTV20C_TFProjectile_Flare.txt': 'C_TFProjectile_Flare', '__ZTV35CAchievementTFPyro_DestroyBuildings.txt': 'CAchievementTFPyro_DestroyBuildings', '__ZTV12CVoiceStatus.txt': 'CVoiceStatus', '__ZTV14C_TFWeaponBase.txt': 'C_TFWeaponBase', '__ZTV38CMsgTFFreeTrialChooseMostHelpfulFriend.txt': 'CMsgTFFreeTrialChooseMostHelpfulFriend', '__ZTV21FilePlayerClassInfo_t.txt': 'FilePlayerClassInfo_t', '__ZTV28CAchievementTFPyro_KillGrind.txt': 'CAchievementTFPyro_KillGrind', '__ZTV8CHudMenu.txt': 'CHudMenu', '__ZTV9C_TESmoke.txt': 'C_TESmoke', '__ZTV18C_EntityFlyingBird.txt': 'C_EntityFlyingBird', '__ZTVN8CryptoPP8Rijndael4BaseE.txt': 'CryptoPP::Rijndael::Base', '__ZTV14CEffectsClient.txt': 'CEffectsClient', '__ZTV22CRagdollCollisionRules.txt': 'CRagdollCollisionRules', '__ZTV33CWorkshop_GetContributors_Request.txt': 'CWorkshop_GetContributors_Request', '__ZTV14CMedigunFilter.txt': 'CMedigunFilter', '__ZTV20CSaveRestoreBlockSet.txt': 'CSaveRestoreBlockSet', '__ZTVN8CryptoPP23AbstractEuclideanDomainINS_7IntegerEEE.txt': 'CryptoPP::AbstractEuclideanDomain<CryptoPP::Integer>', '__ZTVN13sky3dparams_t14NetworkVar_fogE.txt': 'sky3dparams_t::NetworkVar_fog', '__ZTV30CAchievementTFPyro_AssistMedic.txt': 'CAchievementTFPyro_AssistMedic', '__ZTV41CAchievementTFSniper_KillEnemiesImportant.txt': 'CAchievementTFSniper_KillEnemiesImportant', '__ZTVN13CBaseViewport16CBackGroundPanelE.txt': 'CBaseViewport::CBackGroundPanel', '__ZTV23CMsgTFVoteKickBanPlayer.txt': 'CMsgTFVoteKickBanPlayer', '__ZTV22CTextureTransformProxy.txt': 'CTextureTransformProxy', '__ZTV28CMsgGCToGCSOCacheUnsubscribe.txt': 'CMsgGCToGCSOCacheUnsubscribe', '__ZTV25CEconTool_TFSpellbookPage.txt': 'CEconTool_TFSpellbookPage', '__ZTV27CParticleOperatorDefinitionI21C_INIT_RandomSequenceE.txt': 'CParticleOperatorDefinition<C_INIT_RandomSequence>', '__ZTV13C_RocketTrail.txt': 'C_RocketTrail', '__ZTV46CAchievementTF_MvM_Sniper_CollectHeadshotMoney.txt': 'CAchievementTF_MvM_Sniper_CollectHeadshotMoney', '__ZTV23C_OP_RenderSpritesTrail.txt': 'C_OP_RenderSpritesTrail', '__ZTV36CAchievementTFPyro_BurnChargedMedics.txt': 'CAchievementTFPyro_BurnChargedMedics', '__ZTV13CSpectatorGUI.txt': 'CSpectatorGUI', '__ZTV7C_TFBat.txt': 'C_TFBat', '__ZTV22CMsgLANServerAvailable.txt': 'CMsgLANServerAvailable', '__ZTVN18PrecacheEffectWarp20ClientEffectRegisterE.txt': 'PrecacheEffectWarp::ClientEffectRegister', '__ZTV41CAttributeIterator_GetTypedAttributeValueIjfE.txt': 'CAttributeIterator_GetTypedAttributeValue<unsigned int, float>', '__ZTV8C_TEFizz.txt': 'C_TEFizz', '__ZTV36CAchievementTFSniper_HeadShotDemoman.txt': 'CAchievementTFSniper_HeadShotDemoman', '__ZTV8C_Zombie.txt': 'C_Zombie', '__ZTV17CEntitySpeedProxy.txt': 'CEntitySpeedProxy', '__ZTV20CHudVguiScreenCursor.txt': 'CHudVguiScreenCursor', '__ZTVN4vgui17CBitmapImagePanelE.txt': 'vgui::CBitmapImagePanel', '__ZTV27CParticleOperatorDefinitionI25C_INIT_CreateWithinSphereE.txt': 'CParticleOperatorDefinition<C_INIT_CreateWithinSphere>', '__ZTV9CCallbackI17CTFGCClientSystem17LobbyChatUpdate_tLb0EE.txt': 'CCallback<CTFGCClientSystem, LobbyChatUpdate_t, false>', '__ZTV18CGameEventListener.txt': 'CGameEventListener', '__ZTV12CGlowOverlay.txt': 'CGlowOverlay', '__ZTVN11CLobbyPanel14QuickplayPanelE.txt': 'CLobbyPanel::QuickplayPanel', '__ZTV12CRopeManager.txt': 'CRopeManager', '__ZTV16CUpgradeBuyPanel.txt': 'CUpgradeBuyPanel', '__ZTV21C_BaseEntityClassList.txt': 'C_BaseEntityClassList', '__ZTVN5GCSDK6CGCMsgI27MsgGCCustomizeItemTexture_tEE.txt': 'GCSDK::CGCMsg<MsgGCCustomizeItemTexture_t>', '__ZTV18C_BaseCombatWeapon.txt': 'C_BaseCombatWeapon', '__ZTV46CAchievementTFScout_DestroyBuildingsBeingBuilt.txt': 'CAchievementTFScout_DestroyBuildingsBeingBuilt', '__ZTV23CTFDuelInfoNotification.txt': 'CTFDuelInfoNotification', '__ZTV36CMsgSOCacheSubscribed_SubscribedType.txt': 'CMsgSOCacheSubscribed_SubscribedType', '__ZTVN5GCSDK12CProtoBufMsgI23CMsgCreateOrUpdatePartyEE.txt': 'GCSDK::CProtoBufMsg<CMsgCreateOrUpdateParty>', '__ZTV15CHudVoiceStatus.txt': 'CHudVoiceStatus', '__ZTVZ22GetCardUpgradeForIndexPK18IEconItemInterfaceiE37CGetNthUserGeneratedAttributeIterator.txt': 'GetCardUpgradeForIndex(IEconItemInterface const*, int)::CGetNthUserGeneratedAttributeIterator', '__ZTV21CHudArenaNotification.txt': 'CHudArenaNotification', '__ZTV35CAchievementTFSniper_KillRoundStart.txt': 'CAchievementTFSniper_KillRoundStart', '__ZTV16C_ParticleSystem.txt': 'C_ParticleSystem', '__ZTV32CSOEconGameAccountForGameServers.txt': 'CSOEconGameAccountForGameServers', '__ZTV18CLayeredMapToolTip.txt': 'CLayeredMapToolTip', '__ZTV22CMvMVictoryMannUpPanel.txt': 'CMvMVictoryMannUpPanel', '__ZTVN5GCSDK21CProtoBufSharedObjectI10CSOTFLobbyLi2004EEE.txt': 'GCSDK::CProtoBufSharedObject<CSOTFLobby, 2004>', '__ZTV50CAchievementTFHalloweenHelltowerEnvironmentalKills.txt': 'CAchievementTFHalloweenHelltowerEnvironmentalKills', '__ZTV13CFXStaticLine.txt': 'CFXStaticLine', '__ZTV29CMsgHalloween_ServerBossEvent.txt': 'CMsgHalloween_ServerBossEvent', '__ZTV38CAchievementTFEngineer_RevengeCritLife.txt': 'CAchievementTFEngineer_RevengeCritLife', '__ZTV34CMsgLeaveGameAndPrepareToJoinParty.txt': 'CMsgLeaveGameAndPrepareToJoinParty', '__ZTVN4vgui10MessageBoxE.txt': 'vgui::MessageBox', '__ZTV24CSOClassPresetClientData.txt': 'CSOClassPresetClientData', '__ZTV33CAchievementTFMedic_SwitchToMedic.txt': 'CAchievementTFMedic_SwitchToMedic', '__ZTV44CAchievementTFDoomsday_KillEnemiesOnElevator.txt': 'CAchievementTFDoomsday_KillEnemiesOnElevator', '__ZTV36CGCTFQuickplay_ScoreServers_Response.txt': 'CGCTFQuickplay_ScoreServers_Response', '__ZTV30CAchievementTFPyro_KillCamping.txt': 'CAchievementTFPyro_KillCamping', '__ZTV17CHudBaseBuildMenu.txt': 'CHudBaseBuildMenu', '__ZTV27CHudBuildingStatusContainer.txt': 'CHudBuildingStatusContainer', '__ZTV23C_INIT_DistanceToCPInit.txt': 'C_INIT_DistanceToCPInit', '__ZTV19CViewAngleAnimation.txt': 'CViewAngleAnimation', '__ZTV21CPlayerProximityProxy.txt': 'CPlayerProximityProxy', '__ZTV39CMsgRequestItemPurgatory_RefundPurchase.txt': 'CMsgRequestItemPurgatory_RefundPurchase', '__ZTVN8CryptoPP6FilterE.txt': 'CryptoPP::Filter', '__ZTV17C_RecipientFilter.txt': 'C_RecipientFilter', '__ZTV19CTradingStartDialog.txt': 'CTradingStartDialog', '__ZTV34CAchievementTFPowerhouse_WinRounds.txt': 'CAchievementTFPowerhouse_WinRounds', '__ZTV34CAchievementTFFoundry_FastFinalCap.txt': 'CAchievementTFFoundry_FastFinalCap', '__ZTV31CAchievementTFSniper_JaratePack.txt': 'CAchievementTFSniper_JaratePack', '__ZTVN9HTMLPopup9PopupHTMLE.txt': 'HTMLPopup::PopupHTML', '__ZTV19CReplayBrowserPanel.txt': 'CReplayBrowserPanel', '__ZTVN8CryptoPP23AlgorithmParametersBaseE.txt': 'CryptoPP::AlgorithmParametersBase', '__ZTV17CTFHudPlayerClass.txt': 'CTFHudPlayerClass', '__ZTV19CMsgServerAvailable.txt': 'CMsgServerAvailable', '__ZTV42CWorkshop_PopulateItemDescriptions_Request.txt': 'CWorkshop_PopulateItemDescriptions_Request', '__ZTV12CRopePhysicsILi10EE.txt': 'CRopePhysics<10>', '__ZTVN5GCSDK12CProtoBufMsgI19CMsgSystemBroadcastEE.txt': 'GCSDK::CProtoBufMsg<CMsgSystemBroadcast>', '__ZTV31CMsgTFRequestTF2FriendsResponse.txt': 'CMsgTFRequestTF2FriendsResponse', '__ZTVN5GCSDK22CProtoBufMsgMemoryPoolI24CMsgAcceptInviteResponseEE.txt': 'GCSDK::CProtoBufMsgMemoryPool<CMsgAcceptInviteResponse>', '__ZTV28C_TFRocketLauncher_DirectHit.txt': 'C_TFRocketLauncher_DirectHit', '__ZTV11CSCHintIcon.txt': 'CSCHintIcon', '__ZTV20C_MannVsMachineStats.txt': 'C_MannVsMachineStats', '__ZTVN6google8protobuf7MessageE.txt': 'google::protobuf::Message', '__ZTV19CHealthAccountPanel.txt': 'CHealthAccountPanel', '__ZTV23CMvMBombCarrierProgress.txt': 'CMvMBombCarrierProgress', '__ZTVN4vgui5PanelE.txt': 'vgui::Panel', '__ZTV14CSOLobbyInvite.txt': 'CSOLobbyInvite', '__ZTV18C_TEShatterSurface.txt': 'C_TEShatterSurface', '__ZTV40CAchievementTF_MvM_Medic_ReviveTeammates.txt': 'CAchievementTF_MvM_Medic_ReviveTeammates', '__ZTV36CAchievementTFSniper_ShieldFailedSpy.txt': 'CAchievementTFSniper_ShieldFailedSpy', '__ZTV39CMsgGC_Client_UseServerModificationItem.txt': 'CMsgGC_Client_UseServerModificationItem', '__ZTV27CGCMsgGetIPLocationResponse.txt': 'CGCMsgGetIPLocationResponse', '__ZTV16CVoteSetupDialog.txt': 'CVoteSetupDialog', '__ZTVN8CryptoPP9AlgorithmE.txt': 'CryptoPP::Algorithm', '__ZTV19CMsgApplyToolToItem.txt': 'CMsgApplyToolToItem', '__ZTV28CGCMsgMemCachedStatsResponse.txt': 'CGCMsgMemCachedStatsResponse', '__ZTV9CTeamMenu.txt': 'CTeamMenu', '__ZTV19CReplayMessagePanel.txt': 'CReplayMessagePanel', '__ZTV18CTFPumpkinBombShim.txt': 'CTFPumpkinBombShim', '__ZTV9CExButton.txt': 'CExButton', '__ZTV18CStampUpsellDialog.txt': 'CStampUpsellDialog', '__ZTV23CMsgAMGrantGuestPasses2.txt': 'CMsgAMGrantGuestPasses2', '__ZTV13C_SpriteTrail.txt': 'C_SpriteTrail', '__ZTV60CMsgEconPlayerStrangeCountAdjustment_CStrangeCountAdjustment.txt': 'CMsgEconPlayerStrangeCountAdjustment_CStrangeCountAdjustment', '__ZTVN8CryptoPP11RSAFunctionE.txt': 'CryptoPP::RSAFunction', '__ZTVN6google8protobuf19FileDescriptorProtoE.txt': 'google::protobuf::FileDescriptorProto', '__ZTV34CConfirmDisconnectFromServerDialog.txt': 'CConfirmDisconnectFromServerDialog', '__ZTV14C_TFChargedSMG.txt': 'C_TFChargedSMG', '__ZTV36CAchievementTFMedic_ChargeBySetupEnd.txt': 'CAchievementTFMedic_ChargeBySetupEnd', '__ZTV17CUtlVectorDataOpsI10CUtlVectorIi10CUtlMemoryIiiEELi5EE.txt': 'CUtlVectorDataOps<CUtlVector<int, CUtlMemory<int, int> >, 5>', '__ZTV16CQuickplayDialog.txt': 'CQuickplayDialog', '__ZTV20CRotationManipulator.txt': 'CRotationManipulator', '__ZTV30CMsgGC_TFVoteKickPlayerRequest.txt': 'CMsgGC_TFVoteKickPlayerRequest', '__ZTV11CPlayerCell.txt': 'CPlayerCell', '__ZTV12CDataManagerI10CBoneCache17bonecacheparams_tPS0_16CThreadFastMutexE.txt': 'CDataManager<CBoneCache, bonecacheparams_t, CBoneCache*, CThreadFastMutex>', '__ZTV28CGCMsgGetSystemStatsResponse.txt': 'CGCMsgGetSystemStatsResponse', '__ZTV23CTFHudEscortProgressBar.txt': 'CTFHudEscortProgressBar', '__ZTV12C_HandleTest.txt': 'C_HandleTest', '__ZTV16C_TFReviveMarker.txt': 'C_TFReviveMarker', '__ZTVN12_GLOBAL__N_115ScrollBarButtonE.txt': '(anonymous namespace)::ScrollBarButton', '__ZTVN6google8protobuf11EnumOptionsE.txt': 'google::protobuf::EnumOptions', '__ZTV29CAttribute_WorldItemPlacement.txt': 'CAttribute_WorldItemPlacement', '__ZTV11CommandMenu.txt': 'CommandMenu', '__ZTV29ISteamMatchmakingPingResponse.txt': 'ISteamMatchmakingPingResponse', '__ZTV22CMsgTFLeaveChatChannel.txt': 'CMsgTFLeaveChatChannel', '__ZTVN5GCSDK12CProtoBufMsgI31CMsgGCStorePurchaseInitResponseEE.txt': 'GCSDK::CProtoBufMsg<CMsgGCStorePurchaseInitResponse>', '__ZTV19CHudItemEffectMeter.txt': 'CHudItemEffectMeter', '__ZTV13CTFClassImage.txt': 'CTFClassImage', '__ZTV20CMsgGameMatchSignOut.txt': 'CMsgGameMatchSignOut', '__ZTV31CAchievementTFMedic_AssistHeavy.txt': 'CAchievementTFMedic_AssistHeavy', '__ZTV16C_TFBat_Giftwrap.txt': 'C_TFBat_Giftwrap', '__ZTV12C_EconEntity.txt': 'C_EconEntity', '__ZTV18CTraceFilterObject.txt': 'CTraceFilterObject', '__ZTV23CMvMScoreboardEnemyInfo.txt': 'CMvMScoreboardEnemyInfo', '__ZTVN6google8protobuf2io14ErrorCollectorE.txt': 'google::protobuf::io::ErrorCollector', '__ZTV47CEconItemAttributeIterator_ApplyAttributeString.txt': 'CEconItemAttributeIterator_ApplyAttributeString', '__ZTV20CPlayerPositionProxy.txt': 'CPlayerPositionProxy', '__ZTV43CAchievementTF_MvM_CompleteWaveWithoutDying.txt': 'CAchievementTF_MvM_CompleteWaveWithoutDying', '__ZTV17CFlashlightEffect.txt': 'CFlashlightEffect', '__ZTV17CMsgGCGiftedItems.txt': 'CMsgGCGiftedItems', '__ZTV35CAchievementTFHeavy_KillWhileSpunup.txt': 'CAchievementTFHeavy_KillWhileSpunup', '__ZTV13CVictoryPanel.txt': 'CVictoryPanel', '__ZTV14C_ParticleFire.txt': 'C_ParticleFire', '__ZTVN5GCSDK12CProtoBufMsgI20CMsgSetItemPositionsEE.txt': 'GCSDK::CProtoBufMsg<CMsgSetItemPositions>', '__ZTV29C_TFProjectile_SpellSpawnBoss.txt': 'C_TFProjectile_SpellSpawnBoss', '__ZTV35CAchievementTFSpy_SpyDominateSniper.txt': 'CAchievementTFSpy_SpyDominateSniper', '__ZTV38CAchievementTFDemoman_DestroyBuildings.txt': 'CAchievementTFDemoman_DestroyBuildings', '__ZTV26CHudItemEffectMeter_WeaponI9C_TFKnifeE.txt': 'CHudItemEffectMeter_Weapon<C_TFKnife>', '__ZTVN5GCSDK22CProtoBufMsgMemoryPoolI32CMsgTFCoaching_FindCoachResponseEE.txt': 'GCSDK::CProtoBufMsgMemoryPool<CMsgTFCoaching_FindCoachResponse>', '__ZTVN5GCSDK22CProtoBufMsgMemoryPoolI33CMsgFulfillDynamicRecipeComponentEE.txt': 'GCSDK::CProtoBufMsgMemoryPool<CMsgFulfillDynamicRecipeComponent>', '__ZTV11CCallResultI17CMapInfoContainer23LeaderboardFindResult_tE.txt': 'CCallResult<CMapInfoContainer, LeaderboardFindResult_t>', '__ZTV27CMsgTFGoldenWrenchBroadcast.txt': 'CMsgTFGoldenWrenchBroadcast', '__ZTV14C_TEBreakModel.txt': 'C_TEBreakModel', '__ZTV18CProxyResistShield.txt': 'CProxyResistShield', '__ZTVN19CDynamicRecipePanel32CRecipeComponentAttributeCounterE.txt': 'CDynamicRecipePanel::CRecipeComponentAttributeCounter', '__ZTV13CTFItemSystem.txt': 'CTFItemSystem', '__ZTV13CPanelFactoryI29CPDAPanel_Spy_Invis_Pocket_HM20VGuiScreenInitData_tE.txt': 'CPanelFactory<CPDAPanel_Spy_Invis_Pocket_HM, VGuiScreenInitData_t>', '__ZTV18CCopyableUtlVectorIN18ModelPoseDebugInfo8InfoTextE10CUtlMemoryIS1_iEE.txt': 'CCopyableUtlVector<ModelPoseDebugInfo::InfoText, CUtlMemory<ModelPoseDebugInfo::InfoText, int> >', '__ZTV16CClientShadowMgr.txt': 'CClientShadowMgr', '__ZTV21CCommentaryModelPanel.txt': 'CCommentaryModelPanel', '__ZTV17CControlPointIcon.txt': 'CControlPointIcon', '__ZTV25CInterpolatedVarArrayBaseI6VectorLb1EE.txt': 'CInterpolatedVarArrayBase<Vector, true>', '__ZTV23C_ServerRagdollAttached.txt': 'C_ServerRagdollAttached', '__ZTV19CTFUpgradeBoxDialog.txt': 'CTFUpgradeBoxDialog', '__ZTV38CAchievementTFDoomsday_PushIntoExhaust.txt': 'CAchievementTFDoomsday_PushIntoExhaust', '__ZTVN5GCSDK22CProtoBufMsgMemoryPoolI31CMsgTFCoaching_AskCoachResponseEE.txt': 'GCSDK::CProtoBufMsgMemoryPool<CMsgTFCoaching_AskCoachResponse>', '__ZTV36CAchievementTFMedic_AchieveProgress2.txt': 'CAchievementTFMedic_AchieveProgress2', '__ZTV18CTFLayeredMapPanel.txt': 'CTFLayeredMapPanel', '__ZTV25CHudChatFilterCheckButton.txt': 'CHudChatFilterCheckButton', '__ZTV14C_CTFGameStats.txt': 'C_CTFGameStats', '__ZTV21C_EntityParticleTrail.txt': 'C_EntityParticleTrail', '__ZTV9CMDLPanel.txt': 'CMDLPanel', '__ZTV35CAchievementTFPyro_AchieveProgress3.txt': 'CAchievementTFPyro_AchieveProgress3', '__ZTVN27CEconTool_ItemDynamicRecipe31CDynamicRecipeComponentLootListE.txt': 'CEconTool_ItemDynamicRecipe::CDynamicRecipeComponentLootList', '__ZTV20ICaptureZoneAutoList.txt': 'ICaptureZoneAutoList', '__ZTV10C_TFKatana.txt': 'C_TFKatana', '__ZTV38CAchievementTFHalloweenCollectGoodyBag.txt': 'CAchievementTFHalloweenCollectGoodyBag', '__ZTV26CHudItemEffectMeter_WeaponI19C_TFShotgun_RevengeE.txt': 'CHudItemEffectMeter_Weapon<C_TFShotgun_Revenge>', '__ZTV33CCollectionCraftingSelectionPanel.txt': 'CCollectionCraftingSelectionPanel', '__ZTVN10__cxxabiv120__si_class_type_infoE.txt': '__cxxabiv1::__si_class_type_info', '__ZTV40CAchievementTFEngineer_KillSpyTwoSappers.txt': 'CAchievementTFEngineer_KillSpyTwoSappers', '__ZTV15CTFReviveDialog.txt': 'CTFReviveDialog', '__ZTV15CAboveWaterView.txt': 'CAboveWaterView', '__ZTV32CAchievementTFPlayGameEveryClass.txt': 'CAchievementTFPlayGameEveryClass', '__ZTV20CReflectiveGlassView.txt': 'CReflectiveGlassView', '__ZTV17C_LocalTempEntity.txt': 'C_LocalTempEntity', '__ZTV20CGCUsedClaimCodeItem.txt': 'CGCUsedClaimCodeItem', '__ZTV37CConfirmTransmogrifyApplicationDialog.txt': 'CConfirmTransmogrifyApplicationDialog', '__ZTV13C_TEExplosion.txt': 'C_TEExplosion', '__ZTV14C_OP_ModelCull.txt': 'C_OP_ModelCull', '__ZTV26CStrangeCountTransferPanel.txt': 'CStrangeCountTransferPanel', '__ZTV18CGCMsgMemCachedSet.txt': 'CGCMsgMemCachedSet', '__ZTV28C_TFProjectile_SpellKartBats.txt': 'C_TFProjectile_SpellKartBats', '__ZTV6C_Beam.txt': 'C_Beam', '__ZTV20C_WeaponIFMSteadyCam.txt': 'C_WeaponIFMSteadyCam', '__ZTVN5GCSDK26CProtoBufMsgMemoryPoolBaseE.txt': 'GCSDK::CProtoBufMsgMemoryPoolBase', '__ZTV13CBoolProperty.txt': 'CBoolProperty', '__ZTV36CMsgGC_VoteKickPlayerRequestResponse.txt': 'CMsgGC_VoteKickPlayerRequestResponse', '__ZTV25CMsgMvMVictoryInfo_Player.txt': 'CMsgMvMVictoryInfo_Player', '__ZTV32CAchievementTFHeavy_UncoverSpies.txt': 'CAchievementTFHeavy_UncoverSpies', '__ZTV17CMsgWebAPIRequest.txt': 'CMsgWebAPIRequest', '__ZTV21CWaitForConsumeDialog.txt': 'CWaitForConsumeDialog', '__ZTV25C_TFPistol_ScoutSecondary.txt': 'C_TFPistol_ScoutSecondary', '__ZTV9CCallbackI17CTFGCClientSystem14LobbyCreated_tLb0EE.txt': 'CCallback<CTFGCClientSystem, LobbyCreated_t, false>', '__ZTV33CAchievementTFEngineer_TankDamage.txt': 'CAchievementTFEngineer_TankDamage', '__ZTV25CProxyStickybombGlowColor.txt': 'CProxyStickybombGlowColor', '__ZTV23C_OP_DistanceBetweenCPs.txt': 'C_OP_DistanceBetweenCPs', '__ZTVN4vgui13MenuSeparatorE.txt': 'vgui::MenuSeparator', '__ZTV32CAchievementTFSniper_KillNoScope.txt': 'CAchievementTFSniper_KillNoScope', '__ZTV13CBaseViewport.txt': 'CBaseViewport', '__ZTV16CProxyUrineLevel.txt': 'CProxyUrineLevel', '__ZTVN5GCSDK22CProtoBufMsgMemoryPoolI18CMsgProtoBufHeaderEE.txt': 'GCSDK::CProtoBufMsgMemoryPool<CMsgProtoBufHeader>', '__ZTV15CGCClientSystem.txt': 'CGCClientSystem', '__ZTVN5GCSDK22CProtoBufMsgMemoryPoolI23CMsgGCRemoveStrangePartEE.txt': 'GCSDK::CProtoBufMsgMemoryPool<CMsgGCRemoveStrangePart>', '__ZTV18CEconItemAttribute.txt': 'CEconItemAttribute', '__ZTV16C_PlayerResource.txt': 'C_PlayerResource', '__ZTV12SixenseInput.txt': 'SixenseInput', '__ZTV14C_ObjectSapper.txt': 'C_ObjectSapper', '__ZTVN5GCSDK12CProtoBufMsgI31CMsgGCClientDisplayNotificationEE.txt': 'GCSDK::CProtoBufMsg<CMsgGCClientDisplayNotification>', '__ZTV13CMsgSOIDOwner.txt': 'CMsgSOIDOwner', '__ZTVN10__cxxabiv116__enum_type_infoE.txt': '__cxxabiv1::__enum_type_info', '__ZTV18C_TFRocketLauncher.txt': 'C_TFRocketLauncher', '__ZTV18CHudHintKeyDisplay.txt': 'CHudHintKeyDisplay', '__ZTV31CMsgTFRequestDefaultChatChannel.txt': 'CMsgTFRequestDefaultChatChannel', '__ZTV12C_TFRobotArm.txt': 'C_TFRobotArm', '__ZTV47CMsgRequestItemPurgatory_RefundPurchaseResponse.txt': 'CMsgRequestItemPurgatory_RefundPurchaseResponse', '__ZTV17CItemTestHUDPanel.txt': 'CItemTestHUDPanel', '__ZTV35CAchievementTF_MvM_KillSentryBuster.txt': 'CAchievementTF_MvM_KillSentryBuster', '__ZTV27CAchievementTFPyro_BurnRJer.txt': 'CAchievementTFPyro_BurnRJer', '__ZTV27CParticleOperatorDefinitionI23C_OP_PerParticleEmitterE.txt': 'CParticleOperatorDefinition<C_OP_PerParticleEmitter>', '__ZTV26CHudItemEffectMeter_WeaponI11C_TFCleaverE.txt': 'CHudItemEffectMeter_Weapon<C_TFCleaver>', '__ZTV27CTFTradeRequestNotification.txt': 'CTFTradeRequestNotification', '__ZTV16CTFRenderTargets.txt': 'CTFRenderTargets', '__ZTV9CHangRope.txt': 'CHangRope', '__ZTVN5GCSDK16CProtoBufMsgBaseE.txt': 'GCSDK::CProtoBufMsgBase', '__ZTV30CMsgTrackUniquePlayerPairEvent.txt': 'CMsgTrackUniquePlayerPairEvent', '__ZTV32CAchievementTF_MvM_DemoGroupKill.txt': 'CAchievementTF_MvM_DemoGroupKill', '__ZTV17CItemTrackerPanel.txt': 'CItemTrackerPanel', '__ZTV10C_TFPistol.txt': 'C_TFPistol', '__ZTVN5GCSDK22CProtoBufMsgMemoryPoolI13CMsgSortItemsEE.txt': 'GCSDK::CProtoBufMsgMemoryPool<CMsgSortItems>', '__ZTV21CProxyBenefactorLevel.txt': 'CProxyBenefactorLevel', '__ZTV18CSimpleGlowEmitter.txt': 'CSimpleGlowEmitter', '__ZTV11C_LightGlow.txt': 'C_LightGlow', '__ZTV18CLocalSpaceEmitter.txt': 'CLocalSpaceEmitter', '__ZTV19CSoundEmitterSystem.txt': 'CSoundEmitterSystem', '__ZTV25CScreenSpaceEffectManager.txt': 'CScreenSpaceEffectManager', '__ZTVN5GCSDK22CProtoBufMsgMemoryPoolI20CMsgStoreGetUserDataEE.txt': 'GCSDK::CProtoBufMsgMemoryPool<CMsgStoreGetUserData>', '__ZTV27C_PasstimeAskForBallReticle.txt': 'C_PasstimeAskForBallReticle', '__ZTV20CScrollableQuestList.txt': 'CScrollableQuestList', '__ZTV19CHudVoiceSelfStatus.txt': 'CHudVoiceSelfStatus', '__ZTVN5GCSDK22CProtoBufMsgMemoryPoolI39CMsgGCItemPreviewItemBoughtNotificationEE.txt': 'GCSDK::CProtoBufMsgMemoryPool<CMsgGCItemPreviewItemBoughtNotification>', '__ZTV33CSteamAccountIDAttributeCollector.txt': 'CSteamAccountIDAttributeCollector', '__ZTV43CAchievementTFScout_CapFlagWithoutAttacking.txt': 'CAchievementTFScout_CapFlagWithoutAttacking', '__ZTV39CAchievementTFScout_KillInDodgeCooldown.txt': 'CAchievementTFScout_KillInDodgeCooldown', '__ZTV38CAchievementTFSoldier_AchieveProgress2.txt': 'CAchievementTFSoldier_AchieveProgress2', '__ZTV15CShadowLeafEnum.txt': 'CShadowLeafEnum', '__ZTV42CAchievementTFReplay_YouTube_Views_Highest.txt': 'CAchievementTFReplay_YouTube_Views_Highest', '__ZTV16CHudInspectPanel.txt': 'CHudInspectPanel', '__ZTV19CItemSelectionPanel.txt': 'CItemSelectionPanel', '__ZTV20C_INIT_RandomYawFlip.txt': 'C_INIT_RandomYawFlip', '__ZTVN5GCSDK6CGCMsgI24MsgGCUnwrapGiftRequest_tEE.txt': 'GCSDK::CGCMsg<MsgGCUnwrapGiftRequest_t>', '__ZTV20CTFPlayerClassShared.txt': 'CTFPlayerClassShared', '__ZTV32CGCCompleteQuestCompleteResponse.txt': 'CGCCompleteQuestCompleteResponse', '__ZTV8C_TFItem.txt': 'C_TFItem', '__ZTVN4vgui15ScrollBarSliderE.txt': 'vgui::ScrollBarSlider', '__ZTV12C_SporeTrail.txt': 'C_SporeTrail', '__ZTV17CBaseLoadoutPanel.txt': 'CBaseLoadoutPanel', '__ZTVN8CryptoPP8ClonableE.txt': 'CryptoPP::Clonable', '__ZTVN5GCSDK22CProtoBufMsgMemoryPoolI11CMsgUseItemEE.txt': 'GCSDK::CProtoBufMsgMemoryPool<CMsgUseItem>', '__ZTV39CAchievementTFDemoman_EnvironmentalKill.txt': 'CAchievementTFDemoman_EnvironmentalKill', '__ZTVN5GCSDK12CProtoBufMsgI15CMsgConVarValueEE.txt': 'GCSDK::CProtoBufMsg<CMsgConVarValue>', '__ZTV37CAchievementTFSoldier_DuoDemomanKills.txt': 'CAchievementTFSoldier_DuoDemomanKills', '__ZTV25CTFWeaponClassRestriction.txt': 'CTFWeaponClassRestriction', '__ZTV36CAchievementTFFoundry_TeleportAndCap.txt': 'CAchievementTFFoundry_TeleportAndCap', '__ZTV25CExScrollingEditablePanel.txt': 'CExScrollingEditablePanel', '__ZTVN8CryptoPP9ArraySinkE.txt': 'CryptoPP::ArraySink', '__ZTV25CTFHalloweenFortuneTeller.txt': 'CTFHalloweenFortuneTeller', '__ZTVN5GCSDK16CStructNetPacketE.txt': 'GCSDK::CStructNetPacket', '__ZTV9CHudAlert.txt': 'CHudAlert', '__ZTV10C_TEImpact.txt': 'C_TEImpact', '__ZTV24CGCGoldenWrenchBroadcast.txt': 'CGCGoldenWrenchBroadcast', '__ZTV26CTFConditionQuestCondition.txt': 'CTFConditionQuestCondition', '__ZTV19CAlphaMaterialProxy.txt': 'CAlphaMaterialProxy', '__ZTV19CTFPlayerModelPanel.txt': 'CTFPlayerModelPanel', '__ZTV41CAchievementTFSniper_DifferentWeaponsKill.txt': 'CAchievementTFSniper_DifferentWeaponsKill', '__ZTVN5GCSDK21CProtoBufSharedObjectI14CSOPartyInviteLi1001EEE.txt': 'GCSDK::CProtoBufSharedObject<CSOPartyInvite, 1001>', '__ZTV23CEntityDataInstantiatorI12groundlink_tE.txt': 'CEntityDataInstantiator<groundlink_t>', '__ZTV37CAchievementTF_MvM_Maps_Manhattan_Pit.txt': 'CAchievementTF_MvM_Maps_Manhattan_Pit', '__ZTVN5GCSDK9CRefCountE.txt': 'GCSDK::CRefCount', '__ZTV16CRendering3dView.txt': 'CRendering3dView', '__ZTV41CAchievementTFEngineer_DispenserHealGroup.txt': 'CAchievementTFEngineer_DispenserHealGroup', '__ZTV17CHudChatInputLine.txt': 'CHudChatInputLine', '__ZTV14C_TEWorldDecal.txt': 'C_TEWorldDecal', '__ZTV15CHudHintDisplay.txt': 'CHudHintDisplay', '__ZTV14CEconTool_Gift.txt': 'CEconTool_Gift', '__ZTV41CAchievementTFMedic_AssistHeavyLongStreak.txt': 'CAchievementTFMedic_AssistHeavyLongStreak', '__ZTV32CMsgTFCoaching_RemoveFromCoaches.txt': 'CMsgTFCoaching_RemoveFromCoaches', '__ZTV14CSOPartyInvite.txt': 'CSOPartyInvite', '__ZTV31CTFQuestPlayerObjectRestriction.txt': 'CTFQuestPlayerObjectRestriction', '__ZTV12CTF_Presence.txt': 'CTF_Presence', '__ZTVN4vgui12ContextLabelE.txt': 'vgui::ContextLabel', '__ZTV19CTFInventoryManager.txt': 'CTFInventoryManager', '__ZTV13CSmokeEmitter.txt': 'CSmokeEmitter', '__ZTV34CAchievementTFScout_FirstBloodKill.txt': 'CAchievementTFScout_FirstBloodKill', '__ZTVN5GCSDK12CProtoBufMsgI24CMsgSetItemSlotAttributeEE.txt': 'GCSDK::CProtoBufMsg<CMsgSetItemSlotAttribute>', '__ZTV16CCyclicalHoliday.txt': 'CCyclicalHoliday', '__ZTVN8CryptoPP17DERGeneralEncoderE.txt': 'CryptoPP::DERGeneralEncoder', '__ZTV27CMsgRequestInventoryRefresh.txt': 'CMsgRequestInventoryRefresh', '__ZTV9CCallbackI19CClientSteamContext31GameRichPresenceJoinRequested_tLb0EE.txt': 'CCallback<CClientSteamContext, GameRichPresenceJoinRequested_t, false>', '__ZTV15CTrailParticles.txt': 'CTrailParticles', '__ZTVN6google8protobuf8internal29DescriptorPoolExtensionFinderE.txt': 'google::protobuf::internal::DescriptorPoolExtensionFinder', '__ZTV18CNewParticleEffect.txt': 'CNewParticleEffect', '__ZTV35CAchievementTFMedic_BonesawNoMisses.txt': 'CAchievementTFMedic_BonesawNoMisses', '__ZTV18CCopyableUtlVectorIi10CUtlMemoryIiiEE.txt': 'CCopyableUtlVector<int, CUtlMemory<int, int> >', '__ZTV37C_OP_MovementRotateParticleAroundAxis.txt': 'C_OP_MovementRotateParticleAroundAxis', '__ZTVN8CryptoPP16BlockCipherFinalILNS_9CipherDirE0ENS_8Rijndael3EncEEE.txt': 'CryptoPP::BlockCipherFinal<(CryptoPP::CipherDir)0, CryptoPP::Rijndael::Enc>', '__ZTV26CHudItemEffectMeter_WeaponI18C_TFLunchBox_DrinkE.txt': 'CHudItemEffectMeter_Weapon<C_TFLunchBox_Drink>', '__ZTV32CHalloweenOfferingSelectionPanel.txt': 'CHalloweenOfferingSelectionPanel', '__ZTV13C_BaseGrenade.txt': 'C_BaseGrenade', '__ZTV19CGaussianNoiseProxy.txt': 'CGaussianNoiseProxy', '__ZTV27CParticleOperatorDefinitionI18C_OP_BasicMovementE.txt': 'CParticleOperatorDefinition<C_OP_BasicMovement>', '__ZTV25CSoundPatchSaveRestoreOps.txt': 'CSoundPatchSaveRestoreOps', '__ZTVN8CryptoPP27AlgorithmParametersTemplateINS_23ConstByteArrayParameterEEE.txt': 'CryptoPP::AlgorithmParametersTemplate<CryptoPP::ConstByteArrayParameter>', '__ZTV17CExplanationPopup.txt': 'CExplanationPopup', '__ZTV24CStorePricePanel_Bundles.txt': 'CStorePricePanel_Bundles', '__ZTV26CAchievementTF_MultipleBFF.txt': 'CAchievementTF_MultipleBFF', '__ZTV27C_BaseTeamObjectiveResource.txt': 'C_BaseTeamObjectiveResource', '__ZTV15CHudTextMessage.txt': 'CHudTextMessage', '__ZTV25CConfirmItemPreviewDialog.txt': 'CConfirmItemPreviewDialog', '__ZTVN30CConfirmCustomizeTextureDialog17CroppedImagePanelE.txt': 'CConfirmCustomizeTextureDialog::CroppedImagePanel', '__ZTV26CHudItemEffectMeter_WeaponI14C_TFSodaPopperE.txt': 'CHudItemEffectMeter_Weapon<C_TFSodaPopper>', '__ZTV16CInterpolatedVarI6QAngleE.txt': 'CInterpolatedVar<QAngle>', '__ZTV34CAchievementTFSniper_FreezecamWave.txt': 'CAchievementTFSniper_FreezecamWave', '__ZTV27CParticleOperatorDefinitionI16C_OP_RemapScalarE.txt': 'CParticleOperatorDefinition<C_OP_RemapScalar>', '__ZTV8C_TEDust.txt': 'C_TEDust', '__ZTV12CRopePhysicsILi512EE.txt': 'CRopePhysics<512>', '__ZTV45CAchievementTFSoldier_DestroySentryOutOfRange.txt': 'CAchievementTFSoldier_DestroySentryOutOfRange', '__ZTV15CSlideshowPanel.txt': 'CSlideshowPanel', '__ZTV8C_Sprite.txt': 'C_Sprite', '__ZTV9CCallbackI12CAvatarImage20PersonaStateChange_tLb0EE.txt': 'CCallback<CAvatarImage, PersonaStateChange_t, false>', '__ZTV16C_PoseController.txt': 'C_PoseController', '__ZTV16C_TFWeaponSapper.txt': 'C_TFWeaponSapper', '__ZTV34CTFHudPasstimePlayerOffscreenArrow.txt': 'CTFHudPasstimePlayerOffscreenArrow', '__ZTV15CAbuseReportDlg.txt': 'CAbuseReportDlg', '__ZTVN6google8protobuf12_GLOBAL__N_123GeneratedMessageFactoryE.txt': 'google::protobuf::(anonymous namespace)::GeneratedMessageFactory', '__ZTV21CMsgSOCacheSubscribed.txt': 'CMsgSOCacheSubscribed', '__ZTV20CMsgConnectionStatus.txt': 'CMsgConnectionStatus', '__ZTV33C_TFWeaponPDAExpansion_Teleporter.txt': 'C_TFWeaponPDAExpansion_Teleporter', '__ZTV16CMainMenuToolTip.txt': 'CMainMenuToolTip', '__ZTV26CClientDLLSharedAppSystems.txt': 'CClientDLLSharedAppSystems', '__ZTV14CHFontProperty.txt': 'CHFontProperty', '__ZTV27CParticleOperatorDefinitionI15C_OP_DampenToCPE.txt': 'CParticleOperatorDefinition<C_OP_DampenToCP>', '__ZTV19IBaseObjectAutoList.txt': 'IBaseObjectAutoList', '__ZTV42CAchievementTFHalloweenMerasmusCollectLoot.txt': 'CAchievementTFHalloweenMerasmusCollectLoot', '__ZTV15C_TESpriteSpray.txt': 'C_TESpriteSpray', '__ZTV9C_OP_Spin.txt': 'C_OP_Spin', '__ZTV32CWasThankedBySomeoneNotification.txt': 'CWasThankedBySomeoneNotification', '__ZTV15CHudTFCrosshair.txt': 'CHudTFCrosshair', '__ZTV44CAchievementTF_MvM_DestroyTankWhileDeploying.txt': 'CAchievementTF_MvM_DestroyTankWhileDeploying', '__ZTV15C_TFShotgun_HWG.txt': 'C_TFShotgun_HWG', '__ZTV37CAchievementTFSniper_AchieveProgress1.txt': 'CAchievementTFSniper_AchieveProgress1', '__ZTV20CMsgTFSaxxyBroadcast.txt': 'CMsgTFSaxxyBroadcast', '__ZTV26CMsgCraftCollectionUpgrade.txt': 'CMsgCraftCollectionUpgrade', '__ZTVN4vgui11InputDialogE.txt': 'vgui::InputDialog', '__ZTV23CCrossfadableImagePanel.txt': 'CCrossfadableImagePanel', '__ZTV39CAchievementTFEngineer_KillFlagCarriers.txt': 'CAchievementTFEngineer_KillFlagCarriers', '__ZTV16C_HeadlessHatman.txt': 'C_HeadlessHatman', '__ZTV31CDateBasedHolidayNoSpecificYear.txt': 'CDateBasedHolidayNoSpecificYear', '__ZTV28C_OP_RemapDotProductToScalar.txt': 'C_OP_RemapDotProductToScalar', '__ZTV16CTFHudWeaponAmmo.txt': 'CTFHudWeaponAmmo', '__ZTVN4vgui7PageTabE.txt': 'vgui::PageTab', '__ZTV39CAchievementTF_MvM_Maps_Rottenburg_Tank.txt': 'CAchievementTF_MvM_Maps_Rottenburg_Tank', '__ZTV27CParticleOperatorDefinitionI27C_INIT_CreateSequentialPathE.txt': 'CParticleOperatorDefinition<C_INIT_CreateSequentialPath>', '__ZTVN5GCSDK22CProtoBufMsgMemoryPoolI30CMsgSOCacheSubscriptionRefreshEE.txt': 'GCSDK::CProtoBufMsgMemoryPool<CMsgSOCacheSubscriptionRefresh>', '__ZTV36CAchievementTF_MvM_CollectMoneyGrind.txt': 'CAchievementTF_MvM_CollectMoneyGrind', '__ZTV30CTFGenericSubStringRestriction.txt': 'CTFGenericSubStringRestriction', '__ZTVN5GCSDK22CProtoBufMsgMemoryPoolI18CMsgMvMVictoryInfoEE.txt': 'GCSDK::CProtoBufMsgMemoryPool<CMsgMvMVictoryInfo>', '__ZTV13C_PhysicsProp.txt': 'C_PhysicsProp', '__ZTVN8CryptoPP18NullNameValuePairsE.txt': 'CryptoPP::NullNameValuePairs', '__ZTV14C_PasstimeBall.txt': 'C_PasstimeBall', '__ZTV20CFlaggedEntitiesEnum.txt': 'CFlaggedEntitiesEnum', '__ZTV15C_ShadowControl.txt': 'C_ShadowControl', '__ZTV29CMsgSOCacheSubscribedUpToDate.txt': 'CMsgSOCacheSubscribedUpToDate', '__ZTV38CAchievementTFScout_CaptureThreePoints.txt': 'CAchievementTFScout_CaptureThreePoints', '__ZTV15C_BaseAnimating.txt': 'C_BaseAnimating', '__ZTV9CCallbackI11CStorePanel31MicroTxnAuthorizationResponse_tLb0EE.txt': 'CCallback<CStorePanel, MicroTxnAuthorizationResponse_t, false>', '__ZTV12CEmptyConVar.txt': 'CEmptyConVar', '__ZTV30CAchievementTFPyro_DamageGrind.txt': 'CAchievementTFPyro_DamageGrind', '__ZTVZN20CEconItemDescription21Generate_LootListDescEPK21CLocalizationProviderPK18IEconItemInterfaceE28CDescriptionLootListIterator.txt': 'CEconItemDescription::Generate_LootListDesc(CLocalizationProvider const*, IEconItemInterface const*)::CDescriptionLootListIterator', '__ZTVN5GCSDK6CGCMsgI16MsgGCPaintItem_tEE.txt': 'GCSDK::CGCMsg<MsgGCPaintItem_t>', '__ZTV31CEconPreviewExpiredNotification.txt': 'CEconPreviewExpiredNotification', '__ZTVN6google8protobuf25EncodedDescriptorDatabaseE.txt': 'google::protobuf::EncodedDescriptorDatabase', '__ZTV20CHLVoiceStatusHelper.txt': 'CHLVoiceStatusHelper', '__ZTV13CDustFollower.txt': 'CDustFollower', '__ZTV39CGCMsgGC_SpyVsEngyWar_SetKillCamMessage.txt': 'CGCMsgGC_SpyVsEngyWar_SetKillCamMessage', '__ZTV26CGCClientJobCancelPurchase.txt': 'CGCClientJobCancelPurchase', '__ZTV28CAsyncCaptionResourceManager.txt': 'CAsyncCaptionResourceManager', '__ZTV38CMsgGCToGCGetUserSessionServerResponse.txt': 'CMsgGCToGCGetUserSessionServerResponse', '__ZTV12CViewEffects.txt': 'CViewEffects', '__ZTVN5GCSDK12CProtoBufMsgI18CMsgMvMVictoryInfoEE.txt': 'GCSDK::CProtoBufMsg<CMsgMvMVictoryInfo>', '__ZTV40CProportionalIntWithScreenspacePropertyX.txt': 'CProportionalIntWithScreenspacePropertyX', '__ZTV30CTFQuestPlayerAliveRestriction.txt': 'CTFQuestPlayerAliveRestriction', '__ZTV9CHudTrain.txt': 'CHudTrain', '__ZTV33CMsgGCQuestObjective_PointsChange.txt': 'CMsgGCQuestObjective_PointsChange', '__ZTV37CAchievementTFSpy_TFSpySurviveBurning.txt': 'CAchievementTFSpy_TFSpySurviveBurning', '__ZTV9CPropData.txt': 'CPropData', '__ZTV27CMsgGCBannedWordListRequest.txt': 'CMsgGCBannedWordListRequest', '__ZTVN4vgui8MenuItemE.txt': 'vgui::MenuItem', '__ZTV26CAttributeLineItemLootList.txt': 'CAttributeLineItemLootList', '__ZTV41CAchievementTFHalloweenHelltowerRareSpell.txt': 'CAchievementTFHalloweenHelltowerRareSpell', '__ZTV9CCallbackI19CClientSteamContext23SteamServersConnected_tLb0EE.txt': 'CCallback<CClientSteamContext, SteamServersConnected_t, false>', '__ZTV14C_TFSyringeGun.txt': 'C_TFSyringeGun', '__ZTV12ColumnButton.txt': 'ColumnButton', '__ZTV41CAchievementTFSpy_SpyAmbassadorScoutGrind.txt': 'CAchievementTFSpy_SpyAmbassadorScoutGrind', '__ZTV15C_TFPlayerClass.txt': 'C_TFPlayerClass', '__ZTV28CTFStorePreviewItemPanelBase.txt': 'CTFStorePreviewItemPanelBase', '__ZTV27CParticleOperatorDefinitionI19C_INIT_RandomRadiusE.txt': 'CParticleOperatorDefinition<C_INIT_RandomRadius>', '__ZTVN4vgui13TreeNodeImageE.txt': 'vgui::TreeNodeImage', '__ZTV12CDivideProxy.txt': 'CDivideProxy', '__ZTV21C_EnvProjectedTexture.txt': 'C_EnvProjectedTexture', '__ZTV38CAchievementTFSoldier_AirstrikeMaxClip.txt': 'CAchievementTFSoldier_AirstrikeMaxClip', '__ZTVN22CItemSelectionCriteria10CConditionE.txt': 'CItemSelectionCriteria::CCondition', '__ZTVN5GCSDK22CProtoBufMsgMemoryPoolI12CGCMsgTFSyncEE.txt': 'GCSDK::CProtoBufMsgMemoryPool<CGCMsgTFSync>', '__ZTV26CCustomizeTextureJobDialog.txt': 'CCustomizeTextureJobDialog', '__ZTVN4vgui7DividerE.txt': 'vgui::Divider', '__ZTV20CTFFilePublishDialog.txt': 'CTFFilePublishDialog', '__ZTV16CTFReplayFactory.txt': 'CTFReplayFactory', '__ZTV14CTFPlayerPanel.txt': 'CTFPlayerPanel', '__ZTV43CAchievementTFSpy_SpyBackstabDisguiseTarget.txt': 'CAchievementTFSpy_SpyBackstabDisguiseTarget', '__ZTV20CTFGiveawayItemPanel.txt': 'CTFGiveawayItemPanel', '__ZTV22C_INIT_RemapCPtoScalar.txt': 'C_INIT_RemapCPtoScalar', '__ZTV21CGCMsgMemCachedDelete.txt': 'CGCMsgMemCachedDelete', '__ZTV19CHudTournamentSetup.txt': 'CHudTournamentSetup', '__ZTV49CAchievementTFEngineer_HelpTeammateBuildStructure.txt': 'CAchievementTFEngineer_HelpTeammateBuildStructure', '__ZTV9CPDAPanel.txt': 'CPDAPanel', '__ZTV19CTFMedicCallerPanel.txt': 'CTFMedicCallerPanel', '__ZTV20C_TFFlareGun_Revenge.txt': 'C_TFFlareGun_Revenge', '__ZTVN22CTFHUDRobotDestruction14CProgressPanelE.txt': 'CTFHUDRobotDestruction::CProgressPanel', '__ZTV9CTFAutoRP.txt': 'CTFAutoRP', '__ZTV27CParticleOperatorDefinitionI24C_INIT_CreateInHierarchyE.txt': 'CParticleOperatorDefinition<C_INIT_CreateInHierarchy>', '__ZTV28CMsgTFCoaching_CoachJoinGame.txt': 'CMsgTFCoaching_CoachJoinGame', '__ZTV17CAttribute_String.txt': 'CAttribute_String', '__ZTV18CLightmapDebugView.txt': 'CLightmapDebugView', '__ZTVN5GCSDK21CProtoBufSharedObjectI16CSOTFDuelSummaryLi19EEE.txt': 'GCSDK::CProtoBufSharedObject<CSOTFDuelSummary, 19>', '__ZTV17CHudMenuEngyBuild.txt': 'CHudMenuEngyBuild', '__ZTV8CTFLobby.txt': 'CTFLobby', '__ZTVN5GCSDK22CProtoBufMsgMemoryPoolI32CMsgGC_GameServer_CreateIdentityEE.txt': 'GCSDK::CProtoBufMsgMemoryPool<CMsgGC_GameServer_CreateIdentity>', '__ZTV19CPDAPanel_Spy_Invis.txt': 'CPDAPanel_Spy_Invis', '__ZTV13CPanelFactoryI26CPDAPanel_Engineer_Destroy20VGuiScreenInitData_tE.txt': 'CPanelFactory<CPDAPanel_Engineer_Destroy, VGuiScreenInitData_t>', '__ZTV18CParticleCollision.txt': 'CParticleCollision', '__ZTV26CTrainingBaseCarouselPanel.txt': 'CTrainingBaseCarouselPanel', '__ZTV33CAchievementTF_ParachuteKillGrind.txt': 'CAchievementTF_ParachuteKillGrind', '__ZTVN5GCSDK22CProtoBufMsgMemoryPoolI23CMsgCreateOrUpdatePartyEE.txt': 'GCSDK::CProtoBufMsgMemoryPool<CMsgCreateOrUpdateParty>', '__ZTVN5GCSDK12CProtoBufMsgI30CMsgSOCacheSubscriptionRefreshEE.txt': 'GCSDK::CProtoBufMsg<CMsgSOCacheSubscriptionRefresh>', '__ZTVN5GCSDK12CProtoBufMsgI28CMsgDeliverGiftResponseGiverEE.txt': 'GCSDK::CProtoBufMsg<CMsgDeliverGiftResponseGiver>', '__ZTV27CParticleOperatorDefinitionI15C_INIT_AgeNoiseE.txt': 'CParticleOperatorDefinition<C_INIT_AgeNoise>', '__ZTV39CAchievementTFMedic_AssistChargeDemoman.txt': 'CAchievementTFMedic_AssistChargeDemoman', '__ZTV14CTFLobbyMember.txt': 'CTFLobbyMember', '__ZTV35CAchievementTFPyro_BurnCloakedSpies.txt': 'CAchievementTFPyro_BurnCloakedSpies', '__ZTV27CGC_GameServer_ListResponse.txt': 'CGC_GameServer_ListResponse', '__ZTV15IParticleEffect.txt': 'IParticleEffect', '__ZTV21C_FuncReflectiveGlass.txt': 'C_FuncReflectiveGlass', '__ZTV13CWorkerThread.txt': 'CWorkerThread', '__ZTV30CGCSystemMsg_GetAccountDetails.txt': 'CGCSystemMsg_GetAccountDetails', '__ZTV19CColorCorrectionMgr.txt': 'CColorCorrectionMgr', '__ZTV12C_BaseEntity.txt': 'C_BaseEntity', '__ZTVN5GCSDK6CGCMsgI21MsgGC_Duel_Response_tEE.txt': 'GCSDK::CGCMsg<MsgGC_Duel_Response_t>', '__ZTVN4vgui14FileOpenDialogE.txt': 'vgui::FileOpenDialog', '__ZTV24CDefaultClientRenderable.txt': 'CDefaultClientRenderable', '__ZTV18CTraceFilterSimple.txt': 'CTraceFilterSimple', '__ZTV25CNotificationToastControl.txt': 'CNotificationToastControl', '__ZTV40CMsgGCMsgMasterSetClientMsgRouting_Entry.txt': 'CMsgGCMsgMasterSetClientMsgRouting_Entry', '__ZTV16C_TFShotgun_Pyro.txt': 'C_TFShotgun_Pyro', '__ZTV16C_BaseProjectile.txt': 'C_BaseProjectile', '__ZTV21CWaitForPackageDialog.txt': 'CWaitForPackageDialog', '__ZTV16CInterpolatedVarI6VectorE.txt': 'CInterpolatedVar<Vector>', '__ZTV19CFlexAnimationTrack.txt': 'CFlexAnimationTrack', '__ZTV23CTFNameItemNotification.txt': 'CTFNameItemNotification', '__ZTVN6google8protobuf2io19ZeroCopyInputStreamE.txt': 'google::protobuf::io::ZeroCopyInputStream', '__ZTV20CProxyModelGlowColor.txt': 'CProxyModelGlowColor', '__ZTV13CSOItemRecipe.txt': 'CSOItemRecipe', '__ZTV27C_TFWeaponBuilderReplayHack.txt': 'C_TFWeaponBuilderReplayHack', '__ZTV19C_OP_RemapSpeedtoCP.txt': 'C_OP_RemapSpeedtoCP', '__ZTV20CMsgGCGetCommandList.txt': 'CMsgGCGetCommandList', '__ZTV15CBaseASyncPanel.txt': 'CBaseASyncPanel', '__ZTV8C_Embers.txt': 'C_Embers', '__ZTV10CClassMenu.txt': 'CClassMenu', '__ZTV30IRobotDestructionGroupAutoList.txt': 'IRobotDestructionGroupAutoList', '__ZTV26CMsgTFCoaching_CoachJoined.txt': 'CMsgTFCoaching_CoachJoined', '__ZTV27CParticleOperatorDefinitionI16C_OP_FadeAndKillE.txt': 'CParticleOperatorDefinition<C_OP_FadeAndKill>', '__ZTV18C_FuncPasstimeGoal.txt': 'C_FuncPasstimeGoal', '__ZTVN5GCSDK6CGCMsgI24MsgGCUsedClaimCodeItem_tEE.txt': 'GCSDK::CGCMsg<MsgGCUsedClaimCodeItem_t>', '__ZTV20CRefurbishItemDialog.txt': 'CRefurbishItemDialog', '__ZTVN5GCSDK12CProtoBufMsgI27CMsgAdjustItemEquippedStateEE.txt': 'GCSDK::CProtoBufMsg<CMsgAdjustItemEquippedState>', '__ZTV11CClampProxy.txt': 'CClampProxy', '__ZTV27CMsgGCMsgMasterSetDirectory.txt': 'CMsgGCMsgMasterSetDirectory', '__ZTV22CBorderVisualizerPanel.txt': 'CBorderVisualizerPanel', '__ZTVN6google8protobuf14MessageFactoryE.txt': 'google::protobuf::MessageFactory', '__ZTVN5GCSDK6CGCMsgI26MsgGCMOTDRequestResponse_tEE.txt': 'GCSDK::CGCMsg<MsgGCMOTDRequestResponse_t>', '__ZTV23CGSaxxyAwardedBroadcast.txt': 'CGSaxxyAwardedBroadcast', '__ZTV13CPanelFactoryI22CDispenserControlPanel20VGuiScreenInitData_tE.txt': 'CPanelFactory<CDispenserControlPanel, VGuiScreenInitData_t>', '__ZTV22CControlPointCountdown.txt': 'CControlPointCountdown', '__ZTV14CTFStorePanel2.txt': 'CTFStorePanel2', '__ZTVN8CryptoPP17BERGeneralDecoderE.txt': 'CryptoPP::BERGeneralDecoder', '__ZTVN11CLobbyPanel13ChatTextEntryE.txt': 'CLobbyPanel::ChatTextEntry', '__ZTVN5GCSDK22CProtoBufMsgMemoryPoolI26CMsgCraftHalloweenOfferingEE.txt': 'GCSDK::CProtoBufMsgMemoryPool<CMsgCraftHalloweenOffering>', '__ZTV21C_WeaponIFMBaseCamera.txt': 'C_WeaponIFMBaseCamera', '__ZTVN4vgui18SectionedListPanelE.txt': 'vgui::SectionedListPanel', '__ZTV14C_TFWearableVM.txt': 'C_TFWearableVM', '__ZTV15C_BaseViewModel.txt': 'C_BaseViewModel', '__ZTVN5GCSDK22CProtoBufMsgMemoryPoolI25CMsgGCReportAbuseResponseEE.txt': 'GCSDK::CProtoBufMsgMemoryPool<CMsgGCReportAbuseResponse>', '__ZTV24CMsgGCResetStrangeScores.txt': 'CMsgGCResetStrangeScores', '__ZTV13CPanelFactoryI27CRotatingObjectControlPanel20VGuiScreenInitData_tE.txt': 'CPanelFactory<CRotatingObjectControlPanel, VGuiScreenInitData_t>', '__ZTV9CCallbackI17CTFGCClientSystem24GameLobbyJoinRequested_tLb0EE.txt': 'CCallback<CTFGCClientSystem, GameLobbyJoinRequested_t, false>', '__ZTV33CAchievementTFPyro_KillGrindLarge.txt': 'CAchievementTFPyro_KillGrindLarge', '__ZTV12C_PhysMagnet.txt': 'C_PhysMagnet', '__ZTVN23PrecacheEffectDusttrail20ClientEffectRegisterE.txt': 'PrecacheEffectDusttrail::ClientEffectRegister', '__ZTVN8CryptoPP12AbstractRingINS_7IntegerEEE.txt': 'CryptoPP::AbstractRing<CryptoPP::Integer>', '__ZTV23CGCClient_Duel_Response.txt': 'CGCClient_Duel_Response', '__ZTVN8CryptoPP6SourceE.txt': 'CryptoPP::Source', '__ZTV19CTFVoteNotification.txt': 'CTFVoteNotification', '__ZTV9C_TFKnife.txt': 'C_TFKnife', '__ZTV19CTFMessageBoxDialog.txt': 'CTFMessageBoxDialog', '__ZTV38CAchievementTFFoundry_KillCappingEnemy.txt': 'CAchievementTFFoundry_KillCappingEnemy', '__ZTV40CAchievementTFPyro_ForceEnemiesIntoWater.txt': 'CAchievementTFPyro_ForceEnemiesIntoWater', '__ZTV24CMsgAcceptInviteResponse.txt': 'CMsgAcceptInviteResponse', '__ZTV45CAchievementTFDemoman_KillEngiSentryDispenser.txt': 'CAchievementTFDemoman_KillEngiSentryDispenser', '__ZTVN4vgui10BuildGroupE.txt': 'vgui::BuildGroup', '__ZTVN4vgui8QueryBoxE.txt': 'vgui::QueryBox', '__ZTVN8CryptoPP14NotImplementedE.txt': 'CryptoPP::NotImplemented', '__ZTV12C_VGuiScreen.txt': 'C_VGuiScreen', '__ZTV23CMsgTFRequestTF2Friends.txt': 'CMsgTFRequestTF2Friends', '__ZTV28CReplayPreviewPanelSlideshow.txt': 'CReplayPreviewPanelSlideshow', '__ZTV27CParticleOperatorDefinitionI15C_OP_RenderRopeE.txt': 'CParticleOperatorDefinition<C_OP_RenderRope>', '__ZTV15CGC_Duel_Status.txt': 'CGC_Duel_Status', '__ZTV15CSplashParticle.txt': 'CSplashParticle', '__ZTV30CEconTool_StrangeCountTransfer.txt': 'CEconTool_StrangeCountTransfer', '__ZTV36CAchievementTFPyro_BurnZoomedSnipers.txt': 'CAchievementTFPyro_BurnZoomedSnipers', '__ZTV9CCallbackIN4vgui4HTMLE17HTML_NeedsPaint_tLb0EE.txt': 'CCallback<vgui::HTML, HTML_NeedsPaint_t, false>', '__ZTVN5GCSDK22CProtoBufMsgMemoryPoolI23CMsgGCRemoveUpgradeCardEE.txt': 'GCSDK::CProtoBufMsgMemoryPool<CMsgGCRemoveUpgradeCard>', '__ZTV43CAchievementTFEngineer_KillSentryWithSentry.txt': 'CAchievementTFEngineer_KillSentryWithSentry', '__ZTV36CMsgGCGetPartnerAccountLink_Response.txt': 'CMsgGCGetPartnerAccountLink_Response', '__ZTV26C_INIT_RemapScalarToVector.txt': 'C_INIT_RemapScalarToVector', '__ZTV12CDescription.txt': 'CDescription', '__ZTV56CAchievementTFEngineer_DestroySappersOnNonOwnedBuildings.txt': 'CAchievementTFEngineer_DestroySappersOnNonOwnedBuildings', '__ZTV20CHolidayLightManager.txt': 'CHolidayLightManager', '__ZTVN5GCSDK12CProtoBufMsgI32CMsgTFCoaching_FindCoachResponseEE.txt': 'GCSDK::CProtoBufMsg<CMsgTFCoaching_FindCoachResponse>', '__ZTV22C_PropVehicleDriveable.txt': 'C_PropVehicleDriveable', '__ZTVZNK14C_EconItemView17IterateAttributesEP26IEconItemAttributeIteratorE46CEconItemAttributeIterator_EconItemViewWrapper.txt': 'C_EconItemView::IterateAttributes(IEconItemAttributeIterator*) const::CEconItemAttributeIterator_EconItemViewWrapper', '__ZTV14C_TEGlowSprite.txt': 'C_TEGlowSprite', '__ZTV27CParticleOperatorDefinitionI17C_OP_NoiseEmitterE.txt': 'CParticleOperatorDefinition<C_OP_NoiseEmitter>', '__ZTV21CMsgGCCheckFriendship.txt': 'CMsgGCCheckFriendship', '__ZTV39CAchievementTFDemoman_ParachuteDistance.txt': 'CAchievementTFDemoman_ParachuteDistance', '__ZTV11CMsgGCError.txt': 'CMsgGCError', '__ZTV19CHudDamageIndicator.txt': 'CHudDamageIndicator', '__ZTV23CMsgSOCacheUnsubscribed.txt': 'CMsgSOCacheUnsubscribed', '__ZTV38CAchievementTFDemoman_AchieveProgress3.txt': 'CAchievementTFDemoman_AchieveProgress3', '__ZTV25CEconTool_DuelingMinigame.txt': 'CEconTool_DuelingMinigame', '__ZTV27CMsgGCStorePurchaseFinalize.txt': 'CMsgGCStorePurchaseFinalize', '__ZTV25CHudTextureHandleProperty.txt': 'CHudTextureHandleProperty', '__ZTV26CMsgAMFindAccountsResponse.txt': 'CMsgAMFindAccountsResponse', '__ZTV11CHudMessage.txt': 'CHudMessage', '__ZTV13CMsgWebAPIKey.txt': 'CMsgWebAPIKey', '__ZTV35CAchievementTF_MvM_KillBombCarriers.txt': 'CAchievementTF_MvM_KillBombCarriers', '__ZTVN8CryptoPP17AutoSeededX917RNGINS_8RijndaelEEE.txt': 'CryptoPP::AutoSeededX917RNG<CryptoPP::Rijndael>', '__ZTV28C_TFProjectile_SpellFireball.txt': 'C_TFProjectile_SpellFireball', '__ZTV27CParticleOperatorDefinitionI22C_OP_ContinuousEmitterE.txt': 'CParticleOperatorDefinition<C_OP_ContinuousEmitter>', '__ZTV39CAchievementTFEngineer_FreezeWithSentry.txt': 'CAchievementTFEngineer_FreezeWithSentry', '__ZTV27CMsgAdjustItemEquippedState.txt': 'CMsgAdjustItemEquippedState', '__ZTV46CAchievementTFPyro_KillHeaviesWithFlamethrower.txt': 'CAchievementTFPyro_KillHeaviesWithFlamethrower', '__ZTV38CAchievementTFSoldier_KillDemomanGrind.txt': 'CAchievementTFSoldier_KillDemomanGrind', '__ZTV23CBaseHudWeaponSelection.txt': 'CBaseHudWeaponSelection', '__ZTVN5GCSDK22CProtoBufMsgMemoryPoolI28CMsgCreateOrUpdatePartyReplyEE.txt': 'GCSDK::CProtoBufMsgMemoryPool<CMsgCreateOrUpdatePartyReply>', '__ZTV21CClient_Precipitation.txt': 'CClient_Precipitation', '__ZTV14CSpectatorMenu.txt': 'CSpectatorMenu', '__ZTV16CReplayListPanel.txt': 'CReplayListPanel', '__ZTV11C_FireSmoke.txt': 'C_FireSmoke', '__ZTV21C_PasstimePassReticle.txt': 'C_PasstimePassReticle', '__ZTVN5GCSDK6CGCMsgI36MsgGCTrading_InitiateTradeResponse_tEE.txt': 'GCSDK::CGCMsg<MsgGCTrading_InitiateTradeResponse_t>', '__ZTV14CPlaybackPanel.txt': 'CPlaybackPanel', '__ZTV47CMsgTFQuickplay_ScoreServersResponse_ServerInfo.txt': 'CMsgTFQuickplay_ScoreServersResponse_ServerInfo', '__ZTV34CMsgSOMultipleObjects_SingleObject.txt': 'CMsgSOMultipleObjects_SingleObject', '__ZTV30CSelectMostHelpfulFriendDialog.txt': 'CSelectMostHelpfulFriendDialog', '__ZTV37CAchievementTFSniper_KillRocketJumper.txt': 'CAchievementTFSniper_KillRocketJumper', '__ZTV16C_TEDynamicLight.txt': 'C_TEDynamicLight', '__ZTV23CTFQuestTeamRestriction.txt': 'CTFQuestTeamRestriction', '__ZTV18CTraceFilterEntity.txt': 'CTraceFilterEntity', '__ZTV32CAchievementTFEngineer_TauntKill.txt': 'CAchievementTFEngineer_TauntKill', '__ZTV27CParticleOperatorDefinitionI23C_INIT_DistanceToCPInitE.txt': 'CParticleOperatorDefinition<C_INIT_DistanceToCPInit>', '__ZTV44CAchievementTFDemoman_ParachuteKillParachute.txt': 'CAchievementTFDemoman_ParachuteKillParachute', '__ZTV30CAchievementTFHeavy_FirstToCap.txt': 'CAchievementTFHeavy_FirstToCap', '__ZTV11SporeEffect.txt': 'SporeEffect', '__ZTV15CCallbackManualI18ClientModeTFNormal21ScreenshotRequested_tLb0EE.txt': 'CCallbackManual<ClientModeTFNormal, ScreenshotRequested_t, false>', '__ZTV20CSteamWorkshopDialog.txt': 'CSteamWorkshopDialog', '__ZTV43CMsgGCToGCSOCacheSubscribe_CMsgHaveVersions.txt': 'CMsgGCToGCSOCacheSubscribe_CMsgHaveVersions', '__ZTV31CHudBuildingStatusContainer_Spy.txt': 'CHudBuildingStatusContainer_Spy', '__ZTV23CMsgGCStorePurchaseInit.txt': 'CMsgGCStorePurchaseInit', '__ZTV33CMsgSetItemPositions_ItemPosition.txt': 'CMsgSetItemPositions_ItemPosition', '__ZTV40CAchievementTFSoldier_AirstrikeGroupKill.txt': 'CAchievementTFSoldier_AirstrikeGroupKill', '__ZTV36CAchievementTFMedic_FreezecamRagdoll.txt': 'CAchievementTFMedic_FreezecamRagdoll', '__ZTV27CEconItemPerClassPresetData.txt': 'CEconItemPerClassPresetData', '__ZTV44CAchievementTFSoldier_ParachuteKillParachute.txt': 'CAchievementTFSoldier_ParachuteKillParachute', '__ZTV17C_TFMinigameLogic.txt': 'C_TFMinigameLogic', '__ZTV13CFireParticle.txt': 'CFireParticle', '__ZTV39CAchievementTFSniper_HeadShotPostInvuln.txt': 'CAchievementTFSniper_HeadShotPostInvuln', '__ZTV16C_TEEnergySplash.txt': 'C_TEEnergySplash', '__ZTV23CHalloweenOfferingPanel.txt': 'CHalloweenOfferingPanel', '__ZTV44CAchievementTF_MvM_RocketSpecialistKillGrind.txt': 'CAchievementTF_MvM_RocketSpecialistKillGrind', '__ZTV29CGCCoaching_FindCoachResponse.txt': 'CGCCoaching_FindCoachResponse', '__ZTV10C_LaserDot.txt': 'C_LaserDot', '__ZTV29CBuildingStatusItem_SentryGun.txt': 'CBuildingStatusItem_SentryGun', '__ZTV31CAchievementTF_MvM_CompleteTour.txt': 'CAchievementTF_MvM_CompleteTour', '__ZTV22C_BaseAnimatingOverlay.txt': 'C_BaseAnimatingOverlay', '__ZTV17C_ColorCorrection.txt': 'C_ColorCorrection', '__ZTV39CTFRemoveItemCustomizationConfirmDialog.txt': 'CTFRemoveItemCustomizationConfirmDialog', '__ZTV20CEconItemDescription.txt': 'CEconItemDescription', '__ZTVN5GCSDK18CSharedObjectCacheE.txt': 'GCSDK::CSharedObjectCache', '__ZTV20CViewModelInvisProxy.txt': 'CViewModelInvisProxy', '__ZTV27CFullscreenStorePreviewItem.txt': 'CFullscreenStorePreviewItem', '__ZTV32CAchievementTFMedic_HealAchiever.txt': 'CAchievementTFMedic_HealAchiever', '__ZTV27C_FuncRespawnRoomVisualizer.txt': 'C_FuncRespawnRoomVisualizer', '__ZTV34COfflinePractice_MapSelectionPanel.txt': 'COfflinePractice_MapSelectionPanel', '__ZTVN22CItemSelectionCriteria16CStringConditionE.txt': 'CItemSelectionCriteria::CStringCondition', '__ZTV33CReplayPerformancePlaybackHandler.txt': 'CReplayPerformancePlaybackHandler', '__ZTV33CTFHudRobotDestruction_StateImage.txt': 'CTFHudRobotDestruction_StateImage', '__ZTV37CAchievementTFPyro_ReflectProjectiles.txt': 'CAchievementTFPyro_ReflectProjectiles', '__ZTVN4vgui21CvarToggleCheckButtonI9ConVarRefEE.txt': 'vgui::CvarToggleCheckButton<ConVarRef>', '__ZTV27CParticleOperatorDefinitionI9C_OP_CullE.txt': 'CParticleOperatorDefinition<C_OP_Cull>', '__ZTV27CAnimatedOffsetTextureProxy.txt': 'CAnimatedOffsetTextureProxy', '__ZTV49CAttributeIterator_AddPassiveAttribsToPassiveList.txt': 'CAttributeIterator_AddPassiveAttribsToPassiveList', '__ZTV24CYouTubeUploadWaitDialog.txt': 'CYouTubeUploadWaitDialog', '__ZTV29CExplanationPopupCalloutArrow.txt': 'CExplanationPopupCalloutArrow', '__ZTV22CTFCondition_CritBoost.txt': 'CTFCondition_CritBoost', '__ZTV38CAchievementTFScout_LongDistanceRunner.txt': 'CAchievementTFScout_LongDistanceRunner', '__ZTV12C_FuncLadder.txt': 'C_FuncLadder', '__ZTVN8CryptoPP17InvalidDataFormatE.txt': 'CryptoPP::InvalidDataFormat', '__ZTV9CCallbackI11CLobbyPanel20PersonaStateChange_tLb0EE.txt': 'CCallback<CLobbyPanel, PersonaStateChange_t, false>', '__ZTV21CGenericWaitingDialog.txt': 'CGenericWaitingDialog', '__ZTV30CGCFreeTrialConvertedToPremium.txt': 'CGCFreeTrialConvertedToPremium', '__ZTV41CAchievementTFMedic_KillScoutsWithSyringe.txt': 'CAchievementTFMedic_KillScoutsWithSyringe', '__ZTV23CProxySniperRifleCharge.txt': 'CProxySniperRifleCharge', '__ZTV25CCustomTextureOnItemProxy.txt': 'CCustomTextureOnItemProxy', '__ZTVN29PrecacheEffect_TF_MuzzleFlash20ClientEffectRegisterE.txt': 'PrecacheEffect_TF_MuzzleFlash::ClientEffectRegister', '__ZTV25CEconItemPreviewDataBlock.txt': 'CEconItemPreviewDataBlock', '__ZTV40CAchievementTFPyro_AxeKillsNoDeathsLarge.txt': 'CAchievementTFPyro_AxeKillsNoDeathsLarge', '__ZTV40CAchievementTFReplay_YouTube_Views_Tier2.txt': 'CAchievementTFReplay_YouTube_Views_Tier2', '__ZTV36CAchievementTFPyro_IgniteWithRainbow.txt': 'CAchievementTFPyro_IgniteWithRainbow', '__ZTV15CMsgServerHello.txt': 'CMsgServerHello', '__ZTV18CEconTool_GiftWrap.txt': 'CEconTool_GiftWrap', '__ZTV35CGCMsgMemCachedGetResponse_ValueTag.txt': 'CGCMsgMemCachedGetResponse_ValueTag', '__ZTV26C_PropVehicleChoreoGeneric.txt': 'C_PropVehicleChoreoGeneric', '__ZTVSt15basic_stringbufIwSt11char_traitsIwESaIwEE.txt': 'std::basic_stringbuf<wchar_t, std::char_traits<wchar_t>, std::allocator<wchar_t> >', '__ZTV11CCallResultI15CPublishedFiles40RemoteStorageDeletePublishedFileResult_tE.txt': 'CCallResult<CPublishedFiles, RemoteStorageDeletePublishedFileResult_t>', '__ZTV10CHudGeiger.txt': 'CHudGeiger', '__ZTV22CBreakableSurfaceProxy.txt': 'CBreakableSurfaceProxy', '__ZTV26CTFDuelRequestNotification.txt': 'CTFDuelRequestNotification', '__ZTV33CMsgGCStorePurchaseCancelResponse.txt': 'CMsgGCStorePurchaseCancelResponse', '__ZTV28C_PlayerDestructionDispenser.txt': 'C_PlayerDestructionDispenser', '__ZTV38CWorkshop_SetItemPaymentRules_Response.txt': 'CWorkshop_SetItemPaymentRules_Response', '__ZTV44CAchievementTFSnakewater_KillEnemiesInMiddle.txt': 'CAchievementTFSnakewater_KillEnemiesInMiddle', '__ZTV27CParticleOperatorDefinitionI27C_OP_MaintainSequentialPathE.txt': 'CParticleOperatorDefinition<C_OP_MaintainSequentialPath>', '__ZTVN5GCSDK12CProtoBufMsgI17CMsgClientWelcomeEE.txt': 'GCSDK::CProtoBufMsg<CMsgClientWelcome>', '__ZTV25CSOEconItemPresetInstance.txt': 'CSOEconItemPresetInstance', '__ZTV34CAchievementTFEngineer_HeavyAssist.txt': 'CAchievementTFEngineer_HeavyAssist', '__ZTV13CCallbackImplILi28EE.txt': 'CCallbackImpl<28>', '__ZTV5C_Sun.txt': 'C_Sun', '__ZTV16CEntitySaveUtils.txt': 'CEntitySaveUtils', '__ZTV21CMsgDevNewItemRequest.txt': 'CMsgDevNewItemRequest', '__ZTV9C_TFSword.txt': 'C_TFSword', '__ZTV43CEconNotificationVisitor_RemoveTradeRequest.txt': 'CEconNotificationVisitor_RemoveTradeRequest', '__ZTV21CTFProjectile_Syringe.txt': 'CTFProjectile_Syringe', '__ZTV10C_TFPlayer.txt': 'C_TFPlayer', '__ZTVN8CryptoPP19AlgorithmParametersE.txt': 'CryptoPP::AlgorithmParameters', '__ZTV15CBaseEntityList.txt': 'CBaseEntityList', '__ZTVN4vgui9TextImageE.txt': 'vgui::TextImage', '__ZTV39CAchievementTFDemoman_DecapitateNemesis.txt': 'CAchievementTFDemoman_DecapitateNemesis', '__ZTV15CDisguiseStatus.txt': 'CDisguiseStatus', '__ZTV17C_FuncSmokeVolume.txt': 'C_FuncSmokeVolume', '__ZTV14CConfirmDialog.txt': 'CConfirmDialog', '__ZTV20CMsgAMAddFreeLicense.txt': 'CMsgAMAddFreeLicense', '__ZTV17C_TFWeaponBuilder.txt': 'C_TFWeaponBuilder', '__ZTV12C_FireSprite.txt': 'C_FireSprite', '__ZTV24C_INIT_RandomTrailLength.txt': 'C_INIT_RandomTrailLength', '__ZTV13CQuestTooltip.txt': 'CQuestTooltip', '__ZTV24CReplayCachedContestData.txt': 'CReplayCachedContestData', '__ZTV9TAutoListI18C_FuncPasstimeGoalE.txt': 'TAutoList<C_FuncPasstimeGoal>', '__ZTV40CGCMsgGC_SpyVsEngyWar_RequestGlobalStats.txt': 'CGCMsgGC_SpyVsEngyWar_RequestGlobalStats', '__ZTV27CParticleOperatorDefinitionI26C_OP_AttractToControlPointE.txt': 'CParticleOperatorDefinition<C_OP_AttractToControlPoint>', '__ZTV30ITFMvMBossProgressUserAutoList.txt': 'ITFMvMBossProgressUserAutoList', 'osx_demangle.txt': '2', '__ZTV30CMsgGCGetPersonaNames_Response.txt': 'CMsgGCGetPersonaNames_Response', '__ZTV25CGCSystemMessageBroadcast.txt': 'CGCSystemMessageBroadcast', '__ZTVN5GCSDK22CProtoBufMsgMemoryPoolI28CMsgDeliverGiftResponseGiverEE.txt': 'GCSDK::CProtoBufMsgMemoryPool<CMsgDeliverGiftResponseGiver>', '__ZTV22CConfirmGiftWrapDialog.txt': 'CConfirmGiftWrapDialog', '__ZTVN4vgui10ImagePanelE.txt': 'vgui::ImagePanel', '__ZTV26CHudItemEffectMeter_WeaponI16C_TFBat_GiftwrapE.txt': 'CHudItemEffectMeter_Weapon<C_TFBat_Giftwrap>', '__ZTV8C_Plasma.txt': 'C_Plasma', '__ZTV27CParticleOperatorDefinitionI27C_OP_WorldCollideConstraintE.txt': 'CParticleOperatorDefinition<C_OP_WorldCollideConstraint>', '__ZTV19CSimpleControlPoint.txt': 'CSimpleControlPoint', '__ZTV16CPlayerInventory.txt': 'CPlayerInventory', '__ZTVN5GCSDK12CProtoBufMsgI32CMsgGCIncrementKillCountResponseEE.txt': 'GCSDK::CProtoBufMsg<CMsgGCIncrementKillCountResponse>', '__ZTV27CConfirmApplyPaintCanDialog.txt': 'CConfirmApplyPaintCanDialog', '__ZTV34CComboBoxBackpackOverlayDialogBase.txt': 'CComboBoxBackpackOverlayDialogBase', '__ZTV34CAchievementTFSniper_KillMedicPair.txt': 'CAchievementTFSniper_KillMedicPair', '__ZTVN19PrecacheEffectBuild20ClientEffectRegisterE.txt': 'PrecacheEffectBuild::ClientEffectRegister', '__ZTVN5GCSDK23CGCSOCacheSubscribedJobE.txt': 'GCSDK::CGCSOCacheSubscribedJob', '__ZTV20CReplayReminderPanel.txt': 'CReplayReminderPanel', '__ZTV37CAchievementTFWinGravelPitNoEnemyCaps.txt': 'CAchievementTFWinGravelPitNoEnemyCaps', '__ZTV29CMsgSetHatEffectUseHeadOrigin.txt': 'CMsgSetHatEffectUseHeadOrigin', '__ZTV38CAchievementTFSoldier_ThreeDominations.txt': 'CAchievementTFSoldier_ThreeDominations', '__ZTV15CSOTFLadderData.txt': 'CSOTFLadderData', '__ZTV45CConfirmStrangeCountTransferApplicationDialog.txt': 'CConfirmStrangeCountTransferApplicationDialog', '__ZTV26CNotificationsPresentPanel.txt': 'CNotificationsPresentPanel', '__ZTV37CSchemaAttributeType_ItemSlotCriteria.txt': 'CSchemaAttributeType_ItemSlotCriteria', '__ZTV36CAchievementTFSpy_SpyBackstabFriends.txt': 'CAchievementTFSpy_SpyBackstabFriends', '__ZTVN8CryptoPP17ModularArithmeticE.txt': 'CryptoPP::ModularArithmetic', '__ZTV19CTFLeaderboardPanel.txt': 'CTFLeaderboardPanel', '__ZTV9CCallbackIN4vgui4HTMLE19HTML_CloseBrowser_tLb0EE.txt': 'CCallback<vgui::HTML, HTML_CloseBrowser_t, false>', '__ZTVN4vgui15BuildModeDialogE.txt': 'vgui::BuildModeDialog', '__ZTV18CEconTool_PaintCan.txt': 'CEconTool_PaintCan', '__ZTV30CMsgGCGetEmailTemplateResponse.txt': 'CMsgGCGetEmailTemplateResponse', '__ZTV21C_EnvDetailController.txt': 'C_EnvDetailController', '__ZTV41CAchievementTFSpy_SpyBackstabDisguisedSpy.txt': 'CAchievementTFSpy_SpyBackstabDisguisedSpy', '__ZTV13CTFWeaponInfo.txt': 'CTFWeaponInfo', '__ZTV30CSendCreateOrUpdatePartyMsgJob.txt': 'CSendCreateOrUpdatePartyMsgJob', '__ZTV16CTraceFilterGlow.txt': 'CTraceFilterGlow', '__ZTV33CAchievementTF_MvM_KillRobotGrind.txt': 'CAchievementTF_MvM_KillRobotGrind', '__ZTV34CMsgGC_Halloween_GrantItemResponse.txt': 'CMsgGC_Halloween_GrantItemResponse', '__ZTV18CFilePublishDialog.txt': 'CFilePublishDialog', '__ZTV20CHudMedicChargeMeter.txt': 'CHudMedicChargeMeter', '__ZTV13CPanelFactoryI24CPDAPanel_Engineer_Build20VGuiScreenInitData_tE.txt': 'CPanelFactory<CPDAPanel_Engineer_Build, VGuiScreenInitData_t>', '__ZTV28CGCItemPreviewStatusResponse.txt': 'CGCItemPreviewStatusResponse', '__ZTVN4vgui24SectionedListPanelHeaderE.txt': 'vgui::SectionedListPanelHeader', '__ZTV32CAchievementTF_MvM_UseUberBottle.txt': 'CAchievementTF_MvM_UseUberBottle', '__ZTV16C_SpriteOriented.txt': 'C_SpriteOriented', '__ZTVN8CryptoPP6SHA256E.txt': 'CryptoPP::SHA256', '__ZTV18CRequestNameDialog.txt': 'CRequestNameDialog', '__ZTV35CAchievementTFDemoman_BounceAndKill.txt': 'CAchievementTFDemoman_BounceAndKill', '__ZTV28CHudEurekaEffectTeleportMenu.txt': 'CHudEurekaEffectTeleportMenu', '__ZTV18CBasicControlPanel.txt': 'CBasicControlPanel', '__ZTV17CCreditSpendPanel.txt': 'CCreditSpendPanel', '__ZTVN5GCSDK22CProtoBufMsgMemoryPoolI27CMsgRequestInventoryRefreshEE.txt': 'GCSDK::CProtoBufMsgMemoryPool<CMsgRequestInventoryRefresh>', '__ZTV19CRepeatingContainer.txt': 'CRepeatingContainer', '__ZTV27CParticleOperatorDefinitionI18C_OP_VelocityDecayE.txt': 'CParticleOperatorDefinition<C_OP_VelocityDecay>', '__ZTV30CRecipeComponentItemModelPanel.txt': 'CRecipeComponentItemModelPanel', '__ZTV18CGameClientExports.txt': 'CGameClientExports', '__ZTV33CAchievementTFDemoman_DamageGrind.txt': 'CAchievementTFDemoman_DamageGrind', '__ZTV27CParticleOperatorDefinitionI14C_OP_ModelCullE.txt': 'CParticleOperatorDefinition<C_OP_ModelCull>', '__ZTVN4vgui10MenuButtonE.txt': 'vgui::MenuButton', '__ZTV17CEconNotification.txt': 'CEconNotification', '__ZTV34CAchievementTFHeavy_FreezecamTaunt.txt': 'CAchievementTFHeavy_FreezecamTaunt', '__ZTV18CUniformNoiseProxy.txt': 'CUniformNoiseProxy', '__ZTVN6google8protobuf8internal26GeneratedMessageReflectionE.txt': 'google::protobuf::internal::GeneratedMessageReflection', '__ZTV13C_SceneEntity.txt': 'C_SceneEntity', '__ZTV48CAchievementTFSniper_ClassicRifleNoScopeHeadshot.txt': 'CAchievementTFSniper_ClassicRifleNoScopeHeadshot', '__ZTV52CMsgGC_GameServer_UseServerModificationItem_Response.txt': 'CMsgGC_GameServer_UseServerModificationItem_Response', '__ZTV11C_TFMinigun.txt': 'C_TFMinigun', '__ZTV20C_OP_Orient2DRelToCP.txt': 'C_OP_Orient2DRelToCP', '__ZTV37CAchievementTFScout_ThreeFlagCaptures.txt': 'CAchievementTFScout_ThreeFlagCaptures', '__ZTV14CHudCommentary.txt': 'CHudCommentary', '__ZTV22CGCUnlockCrateResponse.txt': 'CGCUnlockCrateResponse', '__ZTVN5GCSDK6CGCMsgI32MsgGCLookupAccountNameResponse_tEE.txt': 'GCSDK::CGCMsg<MsgGCLookupAccountNameResponse_t>', '__ZTV9CAddProxy.txt': 'CAddProxy', '__ZTV19CFloatingHealthIcon.txt': 'CFloatingHealthIcon', '__ZTV14CTFModeManager.txt': 'CTFModeManager', '__ZTV13CTFVideoPanel.txt': 'CTFVideoPanel', '__ZTVN8CryptoPP21SimpleKeyingInterfaceE.txt': 'CryptoPP::SimpleKeyingInterface', '__ZTV12CResultProxy.txt': 'CResultProxy', '__ZTV21C_OP_ColorInterpolate.txt': 'C_OP_ColorInterpolate', '__ZTV19C_TF_PlayerResource.txt': 'C_TF_PlayerResource', '__ZTV23CEntityDataInstantiatorI18vphysicsupdateai_tE.txt': 'CEntityDataInstantiator<vphysicsupdateai_t>', '__ZTV38CAchievementTF_MvM_NoAlarmsInFinalWave.txt': 'CAchievementTF_MvM_NoAlarmsInFinalWave', '__ZTV21CHudControlPointIcons.txt': 'CHudControlPointIcons', '__ZTV11C_TETFBlood.txt': 'C_TETFBlood', '__ZTV23CMsgTFCoaching_AskCoach.txt': 'CMsgTFCoaching_AskCoach', '__ZTV27CParticleOperatorDefinitionI27C_INIT_InitialVelocityNoiseE.txt': 'CParticleOperatorDefinition<C_INIT_InitialVelocityNoise>', '__ZTV17IPredictionSystem.txt': 'IPredictionSystem', '__ZTV17C_OP_RenderPoints.txt': 'C_OP_RenderPoints', '__ZTV17CTraceFilterChain.txt': 'CTraceFilterChain', '__ZTV21C_INIT_PositionOffset.txt': 'C_INIT_PositionOffset', '__ZTV37CAchievementTFSpy_KillWorkingEngineer.txt': 'CAchievementTFSpy_KillWorkingEngineer', '__ZTVN5GCSDK22CProtoBufMsgMemoryPoolI27CMsgApplyStrangeRestrictionEE.txt': 'GCSDK::CProtoBufMsgMemoryPool<CMsgApplyStrangeRestriction>', '__ZTVN8CryptoPP16TrapdoorFunctionE.txt': 'CryptoPP::TrapdoorFunction', '__ZTV20C_InfoLadderDismount.txt': 'C_InfoLadderDismount', '__ZTV32CAchievementTFFoundry_WinMinTime.txt': 'CAchievementTFFoundry_WinMinTime', '__ZTV36CAchievementTFHeavy_AssistMedicLarge.txt': 'CAchievementTFHeavy_AssistMedicLarge', '__ZTV16CEnemyCountPanel.txt': 'CEnemyCountPanel', '__ZTV11CHudTexture.txt': 'CHudTexture', '__ZTV15CBaseModelPanel.txt': 'CBaseModelPanel', '__ZTVN5GCSDK22CProtoBufMsgMemoryPoolI24CMsgGCResetStrangeScoresEE.txt': 'GCSDK::CProtoBufMsgMemoryPool<CMsgGCResetStrangeScores>', '__ZTV16CTFItemCardPanel.txt': 'CTFItemCardPanel', '__ZTV20CCopyRecipientFilter.txt': 'CCopyRecipientFilter', '__ZTV28CSteamWorksGameStatsUploader.txt': 'CSteamWorksGameStatsUploader', '__ZTV29CGCItemPreviewRequestResponse.txt': 'CGCItemPreviewRequestResponse', '__ZTV15C_OP_SpinUpdate.txt': 'C_OP_SpinUpdate', '__ZTV34CAchievementTFReplay_BrowseReplays.txt': 'CAchievementTFReplay_BrowseReplays', '__ZTV29CAchievementTFScout_BlockCaps.txt': 'CAchievementTFScout_BlockCaps', '__ZTVN5GCSDK21CProtoBufSharedObjectI16CSOEconClaimCodeLi3EEE.txt': 'GCSDK::CProtoBufSharedObject<CSOEconClaimCode, 3>', '__ZTV15CPerformanceTip.txt': 'CPerformanceTip', '__ZTV11CMsgUseItem.txt': 'CMsgUseItem', '__ZTVN5GCSDK22CProtoBufMsgMemoryPoolI17CMsgGCReportAbuseEE.txt': 'GCSDK::CProtoBufMsgMemoryPool<CMsgGCReportAbuse>', '__ZTV32CAchievementTFSpy_SapperTeamwork.txt': 'CAchievementTFSpy_SapperTeamwork', '__ZTVN8CryptoPP18PK_SignatureScheme16InvalidKeyLengthE.txt': 'CryptoPP::PK_SignatureScheme::InvalidKeyLength', '__ZTV21CInterpolatedVarArrayIfLi4EE.txt': 'CInterpolatedVarArray<float, 4>', '__ZTV16CTFArenaTeamMenu.txt': 'CTFArenaTeamMenu', '__ZTV25CWaveCompleteSummaryPanel.txt': 'CWaveCompleteSummaryPanel', '__ZTV10C_BaseFlex.txt': 'C_BaseFlex', '__ZTV7C_TFJar.txt': 'C_TFJar', '__ZTV11CLobbyPanel.txt': 'CLobbyPanel', '__ZTV17CMatchMakingPanel.txt': 'CMatchMakingPanel', '__ZTV33CMsgMatchmakingSearchCountRequest.txt': 'CMsgMatchmakingSearchCountRequest', '__ZTV53CAchievementTFSoldier_KillAirborneTargetWhileAirborne.txt': 'CAchievementTFSoldier_KillAirborneTargetWhileAirborne', '__ZTV23CGCNameBaseItemResponse.txt': 'CGCNameBaseItemResponse', '__ZTV14C_TEBeamSpline.txt': 'C_TEBeamSpline', '__ZTVN5GCSDK4CJobE.txt': 'GCSDK::CJob', '__ZTV33CEp1IntroVortRefractMaterialProxy.txt': 'CEp1IntroVortRefractMaterialProxy', '__ZTV9CTFReplay.txt': 'CTFReplay', '__ZTV36CConfirmApplyTeamColorPaintCanDialog.txt': 'CConfirmApplyTeamColorPaintCanDialog', '__ZTV21CBaseGameStats_Driver.txt': 'CBaseGameStats_Driver', '__ZTV11C_TEBubbles.txt': 'C_TEBubbles', '__ZTV17CTradeTargetPanel.txt': 'CTradeTargetPanel', '__ZTV34CTFQuestPlayerConditionRestriction.txt': 'CTFQuestPlayerConditionRestriction', '__ZTV17CMapInfoContainer.txt': 'CMapInfoContainer', '__ZTV17CMsgGCRoutingInfo.txt': 'CMsgGCRoutingInfo', '__ZTV31CReplayScreenshotSlideshowPanel.txt': 'CReplayScreenshotSlideshowPanel', '__ZTV37CAchievementTFMedic_BonesawSpyCallers.txt': 'CAchievementTFMedic_BonesawSpyCallers', '__ZTV18CMatrixRotateProxy.txt': 'CMatrixRotateProxy', '__ZTV16CEconTool_Xifier.txt': 'CEconTool_Xifier', '__ZTV32CAchievementTFScout_IronManKills.txt': 'CAchievementTFScout_IronManKills', '__ZTV11CCallResultI17CMapInfoContainer29LeaderboardScoresDownloaded_tE.txt': 'CCallResult<CMapInfoContainer, LeaderboardScoresDownloaded_t>', '__ZTV14CBaseWaterView.txt': 'CBaseWaterView', '__ZTV27CAnimatedEntityTextureProxy.txt': 'CAnimatedEntityTextureProxy', '__ZTVN5GCSDK22CProtoBufMsgMemoryPoolI23CMsgTFCoaching_AskCoachEE.txt': 'GCSDK::CProtoBufMsgMemoryPool<CMsgTFCoaching_AskCoach>', '__ZTV60CWorkshop_SetItemPaymentRules_Request_PartnerItemPaymentRule.txt': 'CWorkshop_SetItemPaymentRules_Request_PartnerItemPaymentRule', '__ZTV30CAchievementTFCompleteTraining.txt': 'CAchievementTFCompleteTraining', '__ZTV39CAchievementTFPyro_KillPlayersWhileDead.txt': 'CAchievementTFPyro_KillPlayersWhileDead', '__ZTV11CEmptyProxy.txt': 'CEmptyProxy', '__ZTV26CHudItemEffectMeter_WeaponI21C_TFPEPBrawlerBlasterE.txt': 'CHudItemEffectMeter_Weapon<C_TFPEPBrawlerBlaster>', '__ZTV8CExLabel.txt': 'CExLabel', '__ZTVN4vgui11TextTooltipE.txt': 'vgui::TextTooltip', '__ZTVN11CLobbyPanel7ChatLogE.txt': 'CLobbyPanel::ChatLog', '__ZTV15C_BreakableProp.txt': 'C_BreakableProp', '__ZTV54CAchievementTFEngineer_ShotgunKillPreviousSentryTarget.txt': 'CAchievementTFEngineer_ShotgunKillPreviousSentryTarget', '__ZTV23C_OP_PerParticleEmitter.txt': 'C_OP_PerParticleEmitter', '__ZTV20C_BaseParticleEntity.txt': 'C_BaseParticleEntity', '__ZTV41CAchievementTFMedic_KillMedicsWithBonesaw.txt': 'CAchievementTFMedic_KillMedicsWithBonesaw', '__ZTV29CBuildingStatusItem_Dispenser.txt': 'CBuildingStatusItem_Dispenser', '__ZTV21C_BaseCombatCharacter.txt': 'C_BaseCombatCharacter', '__ZTV38CAchievementTFDemoman_KillXScoutsPyros.txt': 'CAchievementTFDemoman_KillXScoutsPyros', '__ZTV43CAchievementTFDemoman_DecapitatePlayersFast.txt': 'CAchievementTFDemoman_DecapitatePlayersFast', '__ZTVN5GCSDK22CProtoBufMsgMemoryPoolI19CMsgApplyToolToItemEE.txt': 'GCSDK::CProtoBufMsgMemoryPool<CMsgApplyToolToItem>', '__ZTV40CBuildingStatusItem_SentryGun_Disposable.txt': 'CBuildingStatusItem_SentryGun_Disposable', '__ZTV33CAchievementTFEngineer_KillAssist.txt': 'CAchievementTFEngineer_KillAssist', '__ZTV22CPixelVisibilitySystem.txt': 'CPixelVisibilitySystem', '__ZTV13CClientEffect.txt': 'CClientEffect', '__ZTV37CAchievementTFSniper_InvisibleSpyKill.txt': 'CAchievementTFSniper_InvisibleSpyKill', '__ZTV31CGCTrading_InitiateTradeRequest.txt': 'CGCTrading_InitiateTradeRequest', '__ZTV17CTFBaseStorePanel.txt': 'CTFBaseStorePanel', '__ZTVN8CryptoPP14InputRejectingINS_22BufferedTransformationEEE.txt': 'CryptoPP::InputRejecting<CryptoPP::BufferedTransformation>', '__ZTV15CEconItemSchema.txt': 'CEconItemSchema', '__ZTV15C_ParticleTrail.txt': 'C_ParticleTrail', '__ZTV36CAchievementTF_MvM_ScoutMarkForDeath.txt': 'CAchievementTF_MvM_ScoutMarkForDeath', '__ZTV23CMsgAMSendEmailResponse.txt': 'CMsgAMSendEmailResponse', '__ZTVN5GCSDK6CGCMsgI25MsgGCItemPreviewRequest_tEE.txt': 'GCSDK::CGCMsg<MsgGCItemPreviewRequest_t>', '__ZTV17C_TEBeamRingPoint.txt': 'C_TEBeamRingPoint', '__ZTVN21PrecachePrecipitation20ClientEffectRegisterE.txt': 'PrecachePrecipitation::ClientEffectRegister', '__ZTV36CGC_GameServer_ResetIdentityResponse.txt': 'CGC_GameServer_ResetIdentityResponse', '__ZTV26CSchemaAttributeType_Float.txt': 'CSchemaAttributeType_Float', '__ZTVN5GCSDK22CProtoBufMsgMemoryPoolI33CMsgGCStorePurchaseCancelResponseEE.txt': 'GCSDK::CProtoBufMsgMemoryPool<CMsgGCStorePurchaseCancelResponse>', '__ZTV21CBaseStorePreviewIcon.txt': 'CBaseStorePreviewIcon', '__ZTV17C_TFWeaponBaseGun.txt': 'C_TFWeaponBaseGun', '__ZTV12CEmberEffect.txt': 'CEmberEffect', '__ZTV41CMsgGCRequestStoreSalesDataResponse_Price.txt': 'CMsgGCRequestStoreSalesDataResponse_Price', '__ZTVN10__cxxabiv119__pointer_type_infoE.txt': '__cxxabiv1::__pointer_type_info', '__ZTV35CAchievementTFDemoman_StickyJumpCap.txt': 'CAchievementTFDemoman_StickyJumpCap', '__ZTV22C_ParticleSmokeGrenade.txt': 'C_ParticleSmokeGrenade', '__ZTV16C_MovieExplosion.txt': 'C_MovieExplosion', '__ZTVN5GCSDK12CProtoBufMsgI23CMsgGCRemoveStrangePartEE.txt': 'GCSDK::CProtoBufMsg<CMsgGCRemoveStrangePart>', '__ZTV36CAchievementTFReplay_PerformanceMode.txt': 'CAchievementTFReplay_PerformanceMode', '__ZTV44CAchievementTFSpy_SpyBackstabEngySapBuilding.txt': 'CAchievementTFSpy_SpyBackstabEngySapBuilding', '__ZTV27CTraceFilterIgnoreTeammates.txt': 'CTraceFilterIgnoreTeammates', '__ZTV15C_FogController.txt': 'C_FogController', '__ZTV18CCopyableUtlVectorIN19CDynamicRecipePanel32CRecipeComponentAttributeCounter16InputComponent_tE10CUtlMemoryIS2_iEE.txt': 'CCopyableUtlVector<CDynamicRecipePanel::CRecipeComponentAttributeCounter::InputComponent_t, CUtlMemory<CDynamicRecipePanel::CRecipeComponentAttributeCounter::InputComponent_t, int> >', '__ZTV21C_PasstimeGoalReticle.txt': 'C_PasstimeGoalReticle', '__ZTV34CAchievementTFHalloweenEyeBossKill.txt': 'CAchievementTFHalloweenEyeBossKill', '__ZTV20CBaseToolUsageDialog.txt': 'CBaseToolUsageDialog', '__ZTV13CPanelFactoryI23CSlideshowDisplayScreen20VGuiScreenInitData_tE.txt': 'CPanelFactory<CSlideshowDisplayScreen, VGuiScreenInitData_t>', '__ZTV13CTFSteamStats.txt': 'CTFSteamStats', '__ZTV39CAchievementTFHalloweenKillScaredPlayer.txt': 'CAchievementTFHalloweenKillScaredPlayer', '__ZTV36CMsgTFRequestChatChannelListResponse.txt': 'CMsgTFRequestChatChannelListResponse', '__ZTVN8CryptoPP12StringSourceE.txt': 'CryptoPP::StringSource', '__ZTV10C_Func_LOD.txt': 'C_Func_LOD', '__ZTV22CSOTFLadderPlayerStats.txt': 'CSOTFLadderPlayerStats', '__ZTV32CAchievementTFSpy_FeignDeathKill.txt': 'CAchievementTFSpy_FeignDeathKill', '__ZTVN5GCSDK22CProtoBufMsgMemoryPoolI26CMsgGCShuffleCrateContentsEE.txt': 'GCSDK::CProtoBufMsgMemoryPool<CMsgGCShuffleCrateContents>', '__ZTV19CTFHudPasstimePanel.txt': 'CTFHudPasstimePanel', '__ZTV27C_TFProjectile_SpellKartOrb.txt': 'C_TFProjectile_SpellKartOrb', '__ZTV24CEconItemDetailsRichText.txt': 'CEconItemDetailsRichText', '__ZTV26CPDAPanel_Spy_Invis_Pocket.txt': 'CPDAPanel_Spy_Invis_Pocket', '__ZTV23CTranslationManipulator.txt': 'CTranslationManipulator', '__ZTV42CAchievementTFSoldier_KillGroupWithCrocket.txt': 'CAchievementTFSoldier_KillGroupWithCrocket', '__ZTV25CTFClientScoreBoardDialog.txt': 'CTFClientScoreBoardDialog', '__ZTVN5GCSDK6CGCMsgI12MsgGCCraft_tEE.txt': 'GCSDK::CGCMsg<MsgGCCraft_t>', '__ZTV13C_PasstimeGun.txt': 'C_PasstimeGun', '__ZTV18CMsgSOCacheVersion.txt': 'CMsgSOCacheVersion', '__ZTV43CAchievementTFHalloweenDoomsdayWinMinigames.txt': 'CAchievementTFHalloweenDoomsdayWinMinigames', '__ZTV19CPushAwayEnumerator.txt': 'CPushAwayEnumerator', '__ZTV16RoundInfoOverlay.txt': 'RoundInfoOverlay', '__ZTV30CMsgGC_GameServer_ListResponse.txt': 'CMsgGC_GameServer_ListResponse', '__ZTV26CMsgGameServerKickingLobby.txt': 'CMsgGameServerKickingLobby', '__ZTV27CParticleOperatorDefinitionI28C_OP_SetControlPointToCenterE.txt': 'CParticleOperatorDefinition<C_OP_SetControlPointToCenter>', '__ZTVN5GCSDK22CProtoBufMsgMemoryPoolI32CMsgTFCoaching_RemoveFromCoachesEE.txt': 'GCSDK::CProtoBufMsgMemoryPool<CMsgTFCoaching_RemoveFromCoaches>', '__ZTVN5GCSDK12CProtoBufMsgI40CMsgGC_GameServer_CreateIdentityResponseEE.txt': 'GCSDK::CProtoBufMsg<CMsgGC_GameServer_CreateIdentityResponse>', '__ZTVN8CryptoPP16InvalidKeyLengthE.txt': 'CryptoPP::InvalidKeyLength', '__ZTV25CAchievementTFSoldier_MVP.txt': 'CAchievementTFSoldier_MVP', '__ZTV34CAchievementTF_MvM_SoldierBuffTeam.txt': 'CAchievementTF_MvM_SoldierBuffTeam', '__ZTV26CEntityOriginMaterialProxy.txt': 'CEntityOriginMaterialProxy', '__ZTV27CParticleOperatorDefinitionI22C_OP_ConstrainDistanceE.txt': 'CParticleOperatorDefinition<C_OP_ConstrainDistance>', '__ZTV26CMsgGCQuestDiscard_Request.txt': 'CMsgGCQuestDiscard_Request', '__ZTV7CTFTips.txt': 'CTFTips', '__ZTVN5GCSDK22CProtoBufMsgMemoryPoolI23CMsgMatchmakingProgressEE.txt': 'GCSDK::CProtoBufMsgMemoryPool<CMsgMatchmakingProgress>', '__ZTVN5GCSDK22CProtoBufMsgMemoryPoolI27CMsgReplayUploadedToYouTubeEE.txt': 'GCSDK::CProtoBufMsgMemoryPool<CMsgReplayUploadedToYouTube>', '__ZTV49CMsgRequestItemPurgatory_FinalizePurchaseResponse.txt': 'CMsgRequestItemPurgatory_FinalizePurchaseResponse', '__ZTVN8CryptoPP23AlgorithmParametersBase16ParameterNotUsedE.txt': 'CryptoPP::AlgorithmParametersBase::ParameterNotUsed', '__ZTV37CAchievementTFTaunt_TauntWhileCapping.txt': 'CAchievementTFTaunt_TauntWhileCapping', '__ZTV38CAchievementTFHeavy_KillCappingEnemies.txt': 'CAchievementTFHeavy_KillCappingEnemies', '__ZTV17CParticleProperty.txt': 'CParticleProperty', '__ZTV23CEntityDataInstantiatorI11touchlink_tE.txt': 'CEntityDataInstantiator<touchlink_t>', '__ZTV29CAchievementTFMedic_HealLarge.txt': 'CAchievementTFMedic_HealLarge', '__ZTV26C_Hightower_TeleportVortex.txt': 'C_Hightower_TeleportVortex', '__ZTV19CCreditDisplayPanel.txt': 'CCreditDisplayPanel', '__ZTV27CSchemaAttributeType_String.txt': 'CSchemaAttributeType_String', '__ZTV22C_FuncAreaPortalWindow.txt': 'C_FuncAreaPortalWindow', '__ZTV25C_TFShotgunBuildingRescue.txt': 'C_TFShotgunBuildingRescue', '__ZTV24CTFAdvancedOptionsDialog.txt': 'CTFAdvancedOptionsDialog', '__ZTV12C_TFWearable.txt': 'C_TFWearable', '__ZTV17C_MonsterResource.txt': 'C_MonsterResource', '__ZTV17WaterDebrisEffect.txt': 'WaterDebrisEffect', '__ZTV30CAchievementTFWinMultipleGames.txt': 'CAchievementTFWinMultipleGames', '__ZTV14CMsgLeaveParty.txt': 'CMsgLeaveParty', '__ZTV7CFXQuad.txt': 'CFXQuad', '__ZTV17C_TFGrapplingHook.txt': 'C_TFGrapplingHook', '__ZTV37CWorkshop_SetItemPaymentRules_Request.txt': 'CWorkshop_SetItemPaymentRules_Request', '__ZTVN5GCSDK12CProtoBufMsgI25CMsgGCReportAbuseResponseEE.txt': 'GCSDK::CProtoBufMsg<CMsgGCReportAbuseResponse>', '__ZTV30CMsgGCToGCGetUserSessionServer.txt': 'CMsgGCToGCGetUserSessionServer', '__ZTV21CTraceFilterWorldOnly.txt': 'CTraceFilterWorldOnly', '__ZTV30CMsgGCToGCGetUserServerMembers.txt': 'CMsgGCToGCGetUserServerMembers', '__ZTV13CHudSpellMenu.txt': 'CHudSpellMenu', '__ZTV27CMsgGC_GameServer_AckPolicy.txt': 'CMsgGC_GameServer_AckPolicy', '__ZTV24CTFHudPasstimeBallStatus.txt': 'CTFHudPasstimeBallStatus', '__ZTVN5GCSDK22CProtoBufMsgMemoryPoolI23CMsgSOCacheUnsubscribedEE.txt': 'GCSDK::CProtoBufMsgMemoryPool<CMsgSOCacheUnsubscribed>', '__ZTV25CTFStorePreviewItemPanel1.txt': 'CTFStorePreviewItemPanel1', '__ZTV13CHudCrosshair.txt': 'CHudCrosshair', '__ZTVN4vgui8TreeNodeE.txt': 'vgui::TreeNode', '__ZTV42CMsgGCQuestObjective_RequestLoanerResponse.txt': 'CMsgGCQuestObjective_RequestLoanerResponse', '__ZTV27C_INIT_CreateSequentialPath.txt': 'C_INIT_CreateSequentialPath', '__ZTV31CAchievementTFFoundry_WinRounds.txt': 'CAchievementTFFoundry_WinRounds', '__ZTV12C_TFAmmoPack.txt': 'C_TFAmmoPack', '__ZTVN5GCSDK22CProtoBufMsgMemoryPoolI17CMsgGCGiftedItemsEE.txt': 'GCSDK::CProtoBufMsgMemoryPool<CMsgGCGiftedItems>', '__ZTV15CAchievementMgr.txt': 'CAchievementMgr', '__ZTV10BlankImage.txt': 'BlankImage', '__ZTV15CEZParticleInit.txt': 'CEZParticleInit', '__ZTV9CHudScope.txt': 'CHudScope', '__ZTV31CMsgHttpResponse_ResponseHeader.txt': 'CMsgHttpResponse_ResponseHeader', '__ZTV36CMsgGCMsgMasterSetDirectory_Response.txt': 'CMsgGCMsgMasterSetDirectory_Response', '__ZTV27CParticleOperatorDefinitionI19C_OP_RemapSpeedtoCPE.txt': 'CParticleOperatorDefinition<C_OP_RemapSpeedtoCP>', '__ZTV10CIconPanel.txt': 'CIconPanel', '__ZTVN8CryptoPP22BufferedTransformation16NoChannelSupportE.txt': 'CryptoPP::BufferedTransformation::NoChannelSupport', '__ZTV9CFunctor6IPFviiiibbEiiiibb12CRefCounted1I8CFunctor20CRefCountServiceBaseILb1E6CRefMTEEE.txt': 'CFunctor6<void (*)(int, int, int, int, bool, bool), int, int, int, int, bool, bool, CRefCounted1<CFunctor, CRefCountServiceBase<true, CRefMT> > >', '__ZTVN6google8protobuf15DescriptorProtoE.txt': 'google::protobuf::DescriptorProto', '__ZTVN4vgui6SliderE.txt': 'vgui::Slider', '__ZTV24C_FuncPhysicsRespawnZone.txt': 'C_FuncPhysicsRespawnZone', '__ZTVN5GCSDK28CProtoBufGCClientSendHandlerE.txt': 'GCSDK::CProtoBufGCClientSendHandler', '__ZTV29CGCCoaching_AlreadyRatedCoach.txt': 'CGCCoaching_AlreadyRatedCoach', '__ZTV36CMsgUpdateHalloweenMerasmusLootLevel.txt': 'CMsgUpdateHalloweenMerasmusLootLevel', '__ZTV16CSOTFDuelSummary.txt': 'CSOTFDuelSummary', '__ZTV36CAchievementTFMedic_InviteJoinCharge.txt': 'CAchievementTFMedic_InviteJoinCharge', '__ZTV16CPredictableList.txt': 'CPredictableList', '__ZTV35CGCMsgTFPlayerSkillRatingAdjustment.txt': 'CGCMsgTFPlayerSkillRatingAdjustment', '__ZTVN20PrecacheEffectSplash20ClientEffectRegisterE.txt': 'PrecacheEffectSplash::ClientEffectRegister', '__ZTVN5GCSDK12CProtoBufMsgI39CMsgGCQuestObjective_RequestLoanerItemsEE.txt': 'GCSDK::CProtoBufMsg<CMsgGCQuestObjective_RequestLoanerItems>', '__ZTV16C_EntityDissolve.txt': 'C_EntityDissolve', '__ZTVN20PrecacheEffectSparks20ClientEffectRegisterE.txt': 'PrecacheEffectSparks::ClientEffectRegister', '__ZTV29CMsgTFVoteKickBanPlayerResult.txt': 'CMsgTFVoteKickBanPlayerResult', '__ZTV18CSecondaryTargetID.txt': 'CSecondaryTargetID', '__ZTV21CTFSpectatorGUIHealth.txt': 'CTFSpectatorGUIHealth', '__ZTV36CMsgTFQuickplay_ScoreServersResponse.txt': 'CMsgTFQuickplay_ScoreServersResponse', '__ZTV18CPrepareFileThread.txt': 'CPrepareFileThread', '__ZTV19CHudBossHealthMeter.txt': 'CHudBossHealthMeter', '__ZTV14C_OP_PlaneCull.txt': 'C_OP_PlaneCull', '__ZTVN5GCSDK12CProtoBufMsgI20CMsgStoreGetUserDataEE.txt': 'GCSDK::CProtoBufMsg<CMsgStoreGetUserData>', '__ZTV27CMsgTFCoaching_CoachJoining.txt': 'CMsgTFCoaching_CoachJoining', '__ZTV13C_TFParachute.txt': 'C_TFParachute', '__ZTV13CMsgSortItems.txt': 'CMsgSortItems', '__ZTV10C_TFRaygun.txt': 'C_TFRaygun', '__ZTV37CAchievementTFSniper_JarateExtinguish.txt': 'CAchievementTFSniper_JarateExtinguish', '__ZTV11C_TFShotgun.txt': 'C_TFShotgun', '__ZTV12CHudFilmDemo.txt': 'CHudFilmDemo', '__ZTV23C_TFPistol_ScoutPrimary.txt': 'C_TFPistol_ScoutPrimary', '__ZTV45CAchievementTF_MvM_EngineerEscapeSentryBuster.txt': 'CAchievementTF_MvM_EngineerEscapeSentryBuster', '__ZTV15CTFHudTeamScore.txt': 'CTFHudTeamScore', '__ZTVN5GCSDK12CProtoBufMsgI18CMsgSOSingleObjectEE.txt': 'GCSDK::CProtoBufMsg<CMsgSOSingleObject>', '__ZTV25CMsgMvMMannUpVictoryReply.txt': 'CMsgMvMMannUpVictoryReply', '__ZTV15CMsgClientHello.txt': 'CMsgClientHello', '__ZTV17CTFStorePage_Maps.txt': 'CTFStorePage_Maps', '__ZTVN5GCSDK22CProtoBufMsgMemoryPoolI30CMsgGC_GameServer_ListResponseEE.txt': 'GCSDK::CProtoBufMsgMemoryPool<CMsgGC_GameServer_ListResponse>', '__ZTV17CMsgKickFromParty.txt': 'CMsgKickFromParty', '__ZTVN5GCSDK12CProtoBufMsgI33CMsgFulfillDynamicRecipeComponentEE.txt': 'GCSDK::CProtoBufMsg<CMsgFulfillDynamicRecipeComponent>', '__ZTV43CMsgAMSendEmail_PersonaNameReplacementToken.txt': 'CMsgAMSendEmail_PersonaNameReplacementToken', '__ZTV37CAchievementTFDoomsday_PushBackAndWin.txt': 'CAchievementTFDoomsday_PushBackAndWin', '__ZTV11mpcontrol_t.txt': 'mpcontrol_t', '__ZTV30CReplayEditorFastForwardButton.txt': 'CReplayEditorFastForwardButton', '__ZTVN5GCSDK22CProtoBufMsgMemoryPoolI20CMsgTFSaxxyBroadcastEE.txt': 'GCSDK::CProtoBufMsgMemoryPool<CMsgTFSaxxyBroadcast>', '__ZTV21CGCMsgTFHelloResponse.txt': 'CGCMsgTFHelloResponse', '__ZTV36CAchievementTFSniper_HeadShotSnipers.txt': 'CAchievementTFSniper_HeadShotSnipers', '__ZTV36CAchievementTF_MvM_UseTeleportBottle.txt': 'CAchievementTF_MvM_UseTeleportBottle', '__ZTV13CDustParticle.txt': 'CDustParticle', '__ZTV31CMsgGCClientDisplayNotification.txt': 'CMsgGCClientDisplayNotification', '__ZTVN5GCSDK12CProtoBufMsgI28CMsgStoreGetUserDataResponseEE.txt': 'GCSDK::CProtoBufMsg<CMsgStoreGetUserDataResponse>', '__ZTV43CMsgGCRequestStoreSalesDataUpToDateResponse.txt': 'CMsgGCRequestStoreSalesDataUpToDateResponse', '__ZTV27CClientEffectPrecacheSystem.txt': 'CClientEffectPrecacheSystem', '__ZTV20IEconItemDescription.txt': 'IEconItemDescription', '__ZTV39CAchievementTFDoomsday_AchieveProgress1.txt': 'CAchievementTFDoomsday_AchieveProgress1', '__ZTV27CParticleOperatorDefinitionI21C_OP_ColorInterpolateE.txt': 'CParticleOperatorDefinition<C_OP_ColorInterpolate>', '__ZTV13C_DynamicProp.txt': 'C_DynamicProp', '__ZTV11CSkyboxView.txt': 'CSkyboxView', '__ZTVN5GCSDK22CProtoBufMsgMemoryPoolI31CMsgTFRequestTF2FriendsResponseEE.txt': 'GCSDK::CProtoBufMsgMemoryPool<CMsgTFRequestTF2FriendsResponse>', '__ZTV33CAchievementTFMedic_KillHealedSpy.txt': 'CAchievementTFMedic_KillHealedSpy', '__ZTVN4vgui14ComboBoxButtonE.txt': 'vgui::ComboBoxButton', '__ZTV32CAchievementTF_MvM_UseCritBottle.txt': 'CAchievementTF_MvM_UseCritBottle', '__ZTV16CInterpolatedVarIfE.txt': 'CInterpolatedVar<float>', '__ZTV10C_BaseDoor.txt': 'C_BaseDoor', '__ZTV37CTraceFilterIgnoreFriendlyCombatItems.txt': 'CTraceFilterIgnoreFriendlyCombatItems', '__ZTV34CMsgGCMsgMasterSetClientMsgRouting.txt': 'CMsgGCMsgMasterSetClientMsgRouting', '__ZTV28CMsgDeliverGiftResponseGiver.txt': 'CMsgDeliverGiftResponseGiver', '__ZTV16CHeadlightEffect.txt': 'CHeadlightEffect', '__ZTV17CPhysicsGameTrace.txt': 'CPhysicsGameTrace', '__ZTV34CAchievementTFScout_KillFromBehind.txt': 'CAchievementTFScout_KillFromBehind', '__ZTV22RealTimeCountdownTimer.txt': 'RealTimeCountdownTimer', '__ZTV25C_INIT_CreateWithinSphere.txt': 'C_INIT_CreateWithinSphere', '__ZTV13CTFTeamButton.txt': 'CTFTeamButton', '__ZTV42CAchievementTFHalloweenDoomsdayTinySmasher.txt': 'CAchievementTFHalloweenDoomsdayTinySmasher', '__ZTVN5GCSDK12CProtoBufMsgI42CMsgGCQuestObjective_RequestLoanerResponseEE.txt': 'GCSDK::CProtoBufMsg<CMsgGCQuestObjective_RequestLoanerResponse>', '__ZTV35CAchievementTFSniper_CaptureTheFlag.txt': 'CAchievementTFSniper_CaptureTheFlag', '__ZTV32CGCCoaching_AddToCoachesResponse.txt': 'CGCCoaching_AddToCoachesResponse', '__ZTV22C_OP_ContinuousEmitter.txt': 'C_OP_ContinuousEmitter', '__ZTV34CAchievementTFHeavy_KillUnderwater.txt': 'CAchievementTFHeavy_KillUnderwater', '__ZTV46CAchievementTF_MvM_HeavyRagePushDeployingRobot.txt': 'CAchievementTF_MvM_HeavyRagePushDeployingRobot', '__ZTV14C_RopeKeyframe.txt': 'C_RopeKeyframe', '__ZTV12CChoreoScene.txt': 'CChoreoScene', '__ZTV18CTFHudPlayerHealth.txt': 'CTFHudPlayerHealth', '__ZTV27CParticleOperatorDefinitionI11C_OP_FadeInE.txt': 'CParticleOperatorDefinition<C_OP_FadeIn>', '__ZTV32CWaitForBackpackSortFinishDialog.txt': 'CWaitForBackpackSortFinishDialog', '__ZTV42CAchievementTFHeavy_EarnDominationForMedic.txt': 'CAchievementTFHeavy_EarnDominationForMedic', '__ZTV37CAchievementTFSniper_AchieveProgress3.txt': 'CAchievementTFSniper_AchieveProgress3', '__ZTV25CAchievementTFKillNemesis.txt': 'CAchievementTFKillNemesis', '__ZTV38CQuestNotification_FullyCompletedQuest.txt': 'CQuestNotification_FullyCompletedQuest', '__ZTV39CAchievementTFEngineer_AchieveProgress1.txt': 'CAchievementTFEngineer_AchieveProgress1', '__ZTV21CEconTool_StrangePart.txt': 'CEconTool_StrangePart', '__ZTV26CHudItemEffectMeter_WeaponI28C_TFRocketLauncher_AirStrikeE.txt': 'CHudItemEffectMeter_Weapon<C_TFRocketLauncher_AirStrike>', '__ZTV21C_HalloweenGiftPickup.txt': 'C_HalloweenGiftPickup', '__ZTV13C_TFTauntProp.txt': 'C_TFTauntProp', '__ZTV10CMouthInfo.txt': 'CMouthInfo', '__ZTV34CConfirmDuckTokenApplicationDialog.txt': 'CConfirmDuckTokenApplicationDialog', '__ZTV44CMsgGC_Client2GCEconPreviewDataBlockResponse.txt': 'CMsgGC_Client2GCEconPreviewDataBlockResponse', '__ZTV22CWaterLODMaterialProxy.txt': 'CWaterLODMaterialProxy', '__ZTV5CSHA1.txt': 'CSHA1', '__ZTVN5GCSDK22CProtoBufMsgMemoryPoolI26CMsgGC_Halloween_GrantItemEE.txt': 'GCSDK::CProtoBufMsgMemoryPool<CMsgGC_Halloween_GrantItem>', '__ZTV23CGCTrading_StartSession.txt': 'CGCTrading_StartSession', '__ZTV29CAchievementTFTaunt_CongaLine.txt': 'CAchievementTFTaunt_CongaLine', '__ZTVN5GCSDK12CProtoBufMsgI26CMsgCraftCollectionUpgradeEE.txt': 'GCSDK::CProtoBufMsg<CMsgCraftCollectionUpgrade>', '__ZTV18CEconTool_CrateKey.txt': 'CEconTool_CrateKey', '__ZTV34CAchievementTF_MvM_PlayGameFriends.txt': 'CAchievementTF_MvM_PlayGameFriends', '__ZTV12CCenterPrint.txt': 'CCenterPrint', '__ZTVN5GCSDK22CProtoBufMsgMemoryPoolI48CMsgGC_Client_UseServerModificationItem_ResponseEE.txt': 'GCSDK::CProtoBufMsgMemoryPool<CMsgGC_Client_UseServerModificationItem_Response>', '__ZTVN6google8protobuf14ServiceOptionsE.txt': 'google::protobuf::ServiceOptions', '__ZTVN5GCSDK22CProtoBufMsgMemoryPoolI40CMsgGCRemoveCustomizationAttributeSimpleEE.txt': 'GCSDK::CProtoBufMsgMemoryPool<CMsgGCRemoveCustomizationAttributeSimple>', '__ZTVN5GCSDK12CProtoBufMsgI19CMsgApplyToolToItemEE.txt': 'GCSDK::CProtoBufMsg<CMsgApplyToolToItem>', '__ZTV45CAchievementTFDemoman_KillTwoDuringStickyJump.txt': 'CAchievementTFDemoman_KillTwoDuringStickyJump', '__ZTVN5GCSDK14CGCSOCreateJobE.txt': 'GCSDK::CGCSOCreateJob', '__ZTVN5GCSDK22CProtoBufMsgMemoryPoolI21CMsgSOMultipleObjectsEE.txt': 'GCSDK::CProtoBufMsgMemoryPool<CMsgSOMultipleObjects>', '__ZTV24CBaseThumbnailCollection.txt': 'CBaseThumbnailCollection', '__ZTVN5GCSDK22CProtoBufMsgMemoryPoolI28CMsgTFCoaching_CoachJoinGameEE.txt': 'GCSDK::CProtoBufMsgMemoryPool<CMsgTFCoaching_CoachJoinGame>', '__ZTV31CMsgGCMsgMasterSetWebAPIRouting.txt': 'CMsgGCMsgMasterSetWebAPIRouting', '__ZTV19CCoachingWaitDialog.txt': 'CCoachingWaitDialog', '__ZTV37CMsgGCRequestSubGCSessionInfoResponse.txt': 'CMsgGCRequestSubGCSessionInfoResponse', '__ZTV28C_TFWeaponPDA_Engineer_Build.txt': 'C_TFWeaponPDA_Engineer_Build', '__ZTV21CItemQuickSwitchPanel.txt': 'CItemQuickSwitchPanel', '__ZTV37CustomTextureStencilGradientMapWidget.txt': 'CustomTextureStencilGradientMapWidget', '__ZTV27CParticleOperatorDefinitionI26C_OP_SetChildControlPointsE.txt': 'CParticleOperatorDefinition<C_OP_SetChildControlPoints>', '__ZTV11CDustEffect.txt': 'CDustEffect', '__ZTV10CSOTFLobby.txt': 'CSOTFLobby', '__ZTV29CTraceFilterOnlyNPCsAndPlayer.txt': 'CTraceFilterOnlyNPCsAndPlayer', '__ZTV26CReplayThumbnailCollection.txt': 'CReplayThumbnailCollection', '__ZTV29CAchievementTFReplay_EditTime.txt': 'CAchievementTFReplay_EditTime', '__ZTV30CMsgGCCheckFriendship_Response.txt': 'CMsgGCCheckFriendship_Response', '__ZTV18CSpectatorTargetID.txt': 'CSpectatorTargetID', '__ZTV9CCallbackIN4vgui4HTMLE17HTML_URLChanged_tLb0EE.txt': 'CCallback<vgui::HTML, HTML_URLChanged_t, false>', '__ZTVN4vgui11FrameButtonE.txt': 'vgui::FrameButton', '__ZTVZN40CInputStringForItemBackpackOverlayDialog16CreateItemPanelsEvE24CItemDefLootListIterator.txt': 'CInputStringForItemBackpackOverlayDialog::CreateItemPanels()::CItemDefLootListIterator', '__ZTV22CTFQuestMapRestriction.txt': 'CTFQuestMapRestriction', '__ZTV26CMsgGCToGCThankedByNewUser.txt': 'CMsgGCToGCThankedByNewUser', '__ZTV30CTFQuestAndOperatorRestriction.txt': 'CTFQuestAndOperatorRestriction', '__ZTV33CAchievementTFSniper_FreezecamHat.txt': 'CAchievementTFSniper_FreezecamHat', '__ZTV28CAchievementTF_FireWaterJump.txt': 'CAchievementTF_FireWaterJump', '__ZTV42CAchievementTFScout_StunScoutWithTheirBall.txt': 'CAchievementTFScout_StunScoutWithTheirBall', '__ZTV43CMsgGCMsgMasterSetClientMsgRouting_Response.txt': 'CMsgGCMsgMasterSetClientMsgRouting_Response', '__ZTV22CHudTeamGoalTournament.txt': 'CHudTeamGoalTournament', '__ZTV23CYouTubeLoginWaitDialog.txt': 'CYouTubeLoginWaitDialog', '__ZTV43CAchievementTF_MvM_SentryBusterFriendlyFire.txt': 'CAchievementTF_MvM_SentryBusterFriendlyFire', '__ZTV27CParticleOperatorDefinitionI31C_INIT_InitialRepulsionVelocityE.txt': 'CParticleOperatorDefinition<C_INIT_InitialRepulsionVelocity>', '__ZTV18C_OP_VelocityDecay.txt': 'C_OP_VelocityDecay', '__ZTV17CMsgServerWelcome.txt': 'CMsgServerWelcome', '__ZTV15C_OP_DampenToCP.txt': 'C_OP_DampenToCP', '__ZTV29CEconCraftingRecipeDefinition.txt': 'CEconCraftingRecipeDefinition', '__ZTV9CCallbackI17CTFGCClientSystem14LobbyChatMsg_tLb0EE.txt': 'CCallback<CTFGCClientSystem, LobbyChatMsg_t, false>', '__ZTV37CAchievementTFFoundry_KillEnemyOnRoof.txt': 'CAchievementTFFoundry_KillEnemyOnRoof', '__ZTV15C_QuadraticBeam.txt': 'C_QuadraticBeam', '__ZTV18CTextureIdProperty.txt': 'CTextureIdProperty', '__ZTV34CAchievementTFEngineer_FreezeTaunt.txt': 'CAchievementTFEngineer_FreezeTaunt', '__ZTV18CExplosionParticle.txt': 'CExplosionParticle', '__ZTV16C_OP_RemapScalar.txt': 'C_OP_RemapScalar', '__ZTV15C_TEPlayerDecal.txt': 'C_TEPlayerDecal', '__ZTV38CGCMsgGC_SpyVsEngyWar_IndividualUpdate.txt': 'CGCMsgGC_SpyVsEngyWar_IndividualUpdate', '__ZTV23C_CaptureFlagReturnIcon.txt': 'C_CaptureFlagReturnIcon', '__ZTV37CAchievementTFSoldier_EqualizerStreak.txt': 'CAchievementTFSoldier_EqualizerStreak', '__ZTV32CGCTrading_InitiateTradeResponse.txt': 'CGCTrading_InitiateTradeResponse', '__ZTV13CDebugOverlay.txt': 'CDebugOverlay', '__ZTVN5GCSDK12CProtoBufMsgI22CMsgGC_GameServer_ListEE.txt': 'GCSDK::CProtoBufMsg<CMsgGC_GameServer_List>', '__ZTVN8CryptoPP25PK_MessageAccumulatorImplINS_6SHA256EEE.txt': 'CryptoPP::PK_MessageAccumulatorImpl<CryptoPP::SHA256>', '__ZTV29C_TFProjectile_ThrowableBrick.txt': 'C_TFProjectile_ThrowableBrick', '__ZTV35CAchievementTFSniper_KillEnemyGrind.txt': 'CAchievementTFSniper_KillEnemyGrind', '__ZTV31CEquipGrapplingHookNotification.txt': 'CEquipGrapplingHookNotification', '__ZTV19CModeSelectionPanel.txt': 'CModeSelectionPanel', '__ZTV30CMsgKickedFromMatchmakingQueue.txt': 'CMsgKickedFromMatchmakingQueue', '__ZTVN5GCSDK22CProtoBufMsgMemoryPoolI28CMsgStoreGetUserDataResponseEE.txt': 'GCSDK::CProtoBufMsgMemoryPool<CMsgStoreGetUserDataResponse>', '__ZTV11CCallResultIN4vgui4HTMLE19HTML_BrowserReady_tE.txt': 'CCallResult<vgui::HTML, HTML_BrowserReady_t>', '__ZTV14CGCGiftedItems.txt': 'CGCGiftedItems', '__ZTV41CAchievementTFKillEnemiesAfterTeleporting.txt': 'CAchievementTFKillEnemiesAfterTeleporting', '__ZTV17C_FuncRespawnRoom.txt': 'C_FuncRespawnRoom', '__ZTV20CQuickplayWaitDialog.txt': 'CQuickplayWaitDialog', '__ZTV38CAchievementTFHalloweenCollectPumpkins.txt': 'CAchievementTFHalloweenCollectPumpkins', '__ZTV36CAchievementTFScout_AchieveProgress2.txt': 'CAchievementTFScout_AchieveProgress2', '__ZTV9CCallbackIN4vgui4HTMLE22HTML_FinishedRequest_tLb0EE.txt': 'CCallback<vgui::HTML, HTML_FinishedRequest_t, false>', '__ZTV38CAchievementTFScout_DestroyTeleporters.txt': 'CAchievementTFScout_DestroyTeleporters', '__ZTV24CSoundEnvelopeController.txt': 'CSoundEnvelopeController', '__ZTVN5GCSDK13CSharedObjectE.txt': 'GCSDK::CSharedObject', '__ZTV41CAchievementTFDemoman_Kill3WithDetonation.txt': 'CAchievementTFDemoman_Kill3WithDetonation', '__ZTV32CAchievementTFWinWellMinimumTime.txt': 'CAchievementTFWinWellMinimumTime', '__ZTV39CAchievementTFPowerhouse_PushBackAndWin.txt': 'CAchievementTFPowerhouse_PushBackAndWin', '__ZTV21C_TFHalloweenMinigame.txt': 'C_TFHalloweenMinigame', '__ZTVN5GCSDK12CProtoBufMsgI24CMsgAcceptInviteResponseEE.txt': 'GCSDK::CProtoBufMsg<CMsgAcceptInviteResponse>', '__ZTVN33PrecachePostProcessingGlowEffects20ClientEffectRegisterE.txt': 'PrecachePostProcessingGlowEffects::ClientEffectRegister', '__ZTV12C_SmokeStack.txt': 'C_SmokeStack', '__ZTV28CMsgAMAddFreeLicenseResponse.txt': 'CMsgAMAddFreeLicenseResponse', '__ZTV31CAchievementTFScout_DoubleJumps.txt': 'CAchievementTFScout_DoubleJumps', '__ZTV41CAchievementTFSoldier_KillTwentyFromAbove.txt': 'CAchievementTFSoldier_KillTwentyFromAbove', '__ZTV16C_MultiplayRules.txt': 'C_MultiplayRules', '__ZTV24C_MannVsMachineWaveStats.txt': 'C_MannVsMachineWaveStats', '__ZTV19CMsgGCMsgSetOptions.txt': 'CMsgGCMsgSetOptions', '__ZTV27CParticleOperatorDefinitionI28C_OP_SetControlPointToPlayerE.txt': 'CParticleOperatorDefinition<C_OP_SetControlPointToPlayer>', '__ZTV10VideoPanel.txt': 'VideoPanel', '__ZTV41CAchievementTFEngineer_DispenserHealGrind.txt': 'CAchievementTFEngineer_DispenserHealGrind', '__ZTV13C_TEBeamLaser.txt': 'C_TEBeamLaser', '__ZTV30CAchievementTFSoldier_KillEngy.txt': 'CAchievementTFSoldier_KillEngy', '__ZTV38C_TFHalloweenMinigame_FallingPlatforms.txt': 'C_TFHalloweenMinigame_FallingPlatforms', '__ZTV35CAchievementTFPyro_AchieveProgress2.txt': 'CAchievementTFPyro_AchieveProgress2', '__ZTV16CEscortHillPanel.txt': 'CEscortHillPanel', '__ZTV22CConveyorMaterialProxy.txt': 'CConveyorMaterialProxy', '__ZTV27CParticleOperatorDefinitionI27C_INIT_CreateFromPlaneCacheE.txt': 'CParticleOperatorDefinition<C_INIT_CreateFromPlaneCache>', '__ZTV21CMsgMvMVictory_Player.txt': 'CMsgMvMVictory_Player', '__ZTV19C_INIT_RandomRadius.txt': 'C_INIT_RandomRadius', '__ZTV17CClientEntityList.txt': 'CClientEntityList', '__ZTV10COrHoliday.txt': 'COrHoliday', '__ZTV28CAchievementTFSpy_SpyFastCap.txt': 'CAchievementTFSpy_SpyFastCap', '__ZTV43CAchievementTFDemoman_KillBuildingDirectHit.txt': 'CAchievementTFDemoman_KillBuildingDirectHit', '__ZTV20localplayerscoring_t.txt': 'localplayerscoring_t', '__ZTV14C_TEBeamFollow.txt': 'C_TEBeamFollow', '__ZTVN4vgui12TreeNodeTextE.txt': 'vgui::TreeNodeText', '__ZTV17CMovieItemManager.txt': 'CMovieItemManager', '__ZTV32CEconTool_StrangePartRestriction.txt': 'CEconTool_StrangePartRestriction', '__ZTV32CMsgTFCoaching_FindCoachResponse.txt': 'CMsgTFCoaching_FindCoachResponse', '__ZTVN4vgui12ExpandButtonE.txt': 'vgui::ExpandButton', '__ZTV25CConCommandMemberAccessorI13CBasePresenceE.txt': 'CConCommandMemberAccessor<CBasePresence>', '__ZTVN5GCSDK22CProtoBufMsgMemoryPoolI42CMsgGCQuestObjective_RequestLoanerResponseEE.txt': 'GCSDK::CProtoBufMsgMemoryPool<CMsgGCQuestObjective_RequestLoanerResponse>', '__ZTV21CGCToGCMsgRoutedReply.txt': 'CGCToGCMsgRoutedReply', '__ZTV33CAchievementTFSniper_JarateReveal.txt': 'CAchievementTFSniper_JarateReveal', '__ZTV24CGenericClassBasedReplay.txt': 'CGenericClassBasedReplay', '__ZTV25C_TFWearableLevelableItem.txt': 'C_TFWearableLevelableItem', '__ZTV12CIntProperty.txt': 'CIntProperty', '__ZTV20CEconTool_Noisemaker.txt': 'CEconTool_Noisemaker', '__ZTVN5GCSDK12CProtoBufMsgI20CMsgApplyUpgradeCardEE.txt': 'GCSDK::CProtoBufMsg<CMsgApplyUpgradeCard>', '__ZTV16C_TEBeamEntPoint.txt': 'C_TEBeamEntPoint', '__ZTV22CWaitForGiftWrapDialog.txt': 'CWaitForGiftWrapDialog', '__ZTV39CAchievementTFSoldier_NemesisShovelKill.txt': 'CAchievementTFSoldier_NemesisShovelKill', '__ZTV15CCoachedByPanel.txt': 'CCoachedByPanel', '__ZTV20CTFHudKothTimeStatus.txt': 'CTFHudKothTimeStatus', '__ZTV37CAchievementTFSoldier_KillFiveStunned.txt': 'CAchievementTFSoldier_KillFiveStunned', '__ZTV34CAchievementTFScout_DoubleJumpKill.txt': 'CAchievementTFScout_DoubleJumpKill', '__ZTV21CHudNotificationPanel.txt': 'CHudNotificationPanel', '__ZTV20CSceneTokenProcessor.txt': 'CSceneTokenProcessor', '__ZTV32CSelectHelpfulFriendNotification.txt': 'CSelectHelpfulFriendNotification', '__ZTV15CTFSpectatorGUI.txt': 'CTFSpectatorGUI', '__ZTV24C_TFProjectile_SpellMirv.txt': 'C_TFProjectile_SpellMirv', '__ZTVN5GCSDK12CProtoBufMsgI23CMsgApplyToolToBaseItemEE.txt': 'GCSDK::CProtoBufMsg<CMsgApplyToolToBaseItem>', '__ZTVN14CBaseWaterView25CSoftwareIntersectionViewE.txt': 'CBaseWaterView::CSoftwareIntersectionView', '__ZTV7C_World.txt': 'C_World', '__ZTV17CTFHudDeathNotice.txt': 'CTFHudDeathNotice', '__ZTV25C_OP_WorldTraceConstraint.txt': 'C_OP_WorldTraceConstraint', '__ZTV39CAchievementTFMedic_SaveFallingTeammate.txt': 'CAchievementTFMedic_SaveFallingTeammate', '__ZTV11C_TFHellZap.txt': 'C_TFHellZap', '__ZTV36CAchievementTFHeavy_ClearStickybombs.txt': 'CAchievementTFHeavy_ClearStickybombs', '__ZTV27CParticleOperatorDefinitionI20C_OP_OscillateVectorE.txt': 'CParticleOperatorDefinition<C_OP_OscillateVector>', '__ZTV23CMsgGCRemoveStrangePart.txt': 'CMsgGCRemoveStrangePart', '__ZTV8C_BotNPC.txt': 'C_BotNPC', '__ZTV37CAchievementTFScout_StartAndFinishCap.txt': 'CAchievementTFScout_StartAndFinishCap', '__ZTV33CReliableBroadcastRecipientFilter.txt': 'CReliableBroadcastRecipientFilter', '__ZTVN5GCSDK22CProtoBufMsgMemoryPoolI31CMsgSetItemEffectVerticalOffsetEE.txt': 'GCSDK::CProtoBufMsgMemoryPool<CMsgSetItemEffectVerticalOffset>', '__ZTVN4vgui13FocusNavGroupE.txt': 'vgui::FocusNavGroup', '__ZTV47CAchievementTFDemoman_DestroyBuildingsWithMedic.txt': 'CAchievementTFDemoman_DestroyBuildingsWithMedic', '__ZTVN5GCSDK21CProtoBufSharedObjectI16CSOTFPartyInviteLi2006EEE.txt': 'GCSDK::CProtoBufSharedObject<CSOTFPartyInvite, 2006>', '__ZTV37CAchievementTFPyro_ReflectCrocketKill.txt': 'CAchievementTFPyro_ReflectCrocketKill', '__ZTV42CMsgGC_PickupItemEligibility_QueryResponse.txt': 'CMsgGC_PickupItemEligibility_QueryResponse', '__ZTV33CQuestNotification_CompletedQuest.txt': 'CQuestNotification_CompletedQuest', '__ZTV40CAchievementTFSoldier_ParachuteKillGroup.txt': 'CAchievementTFSoldier_ParachuteKillGroup', '__ZTV29CKeyValuesDumpContextAsDevMsg.txt': 'CKeyValuesDumpContextAsDevMsg', '__ZTV22CHudDemomanChargeMeter.txt': 'CHudDemomanChargeMeter', '__ZTV28CPhysSaveRestoreBlockHandler.txt': 'CPhysSaveRestoreBlockHandler', '__ZTV12C_AI_BaseNPC.txt': 'C_AI_BaseNPC', '__ZTV21CMsgTFJoinChatChannel.txt': 'CMsgTFJoinChatChannel', '__ZTV9CCallbackIN4vgui4HTMLE19HTML_StartRequest_tLb0EE.txt': 'CCallback<vgui::HTML, HTML_StartRequest_t, false>', '__ZTVN5GCSDK22CProtoBufMsgMemoryPoolI17CMsgClientWelcomeEE.txt': 'GCSDK::CProtoBufMsgMemoryPool<CMsgClientWelcome>', '__ZTV23CDataObjectAccessSystem.txt': 'CDataObjectAccessSystem', '__ZTVN5GCSDK22CProtoBufMsgMemoryPoolI28CMsgTFQuickplay_ScoreServersEE.txt': 'GCSDK::CProtoBufMsgMemoryPool<CMsgTFQuickplay_ScoreServers>', '__ZTV40CInputStringForItemBackpackOverlayDialog.txt': 'CInputStringForItemBackpackOverlayDialog', '__ZTV25CMvMVictoryPanelContainer.txt': 'CMvMVictoryPanelContainer', '__ZTV16CMsgAcceptInvite.txt': 'CMsgAcceptInvite', '__ZTV22C_INIT_RemapCPtoVector.txt': 'C_INIT_RemapCPtoVector', '__ZTVN8CryptoPP9ByteQueue6WalkerE.txt': 'CryptoPP::ByteQueue::Walker', '__ZTV28CEconTool_GrantOperationPass.txt': 'CEconTool_GrantOperationPass', '__ZTV41CAchievementTFSoldier_KillSniperWhileDead.txt': 'CAchievementTFSoldier_KillSniperWhileDead', '__ZTV26CHudItemEffectMeter_WeaponI14C_TFChargedSMGE.txt': 'CHudItemEffectMeter_Weapon<C_TFChargedSMG>', '__ZTVN5GCSDK12CProtoBufMsgI27CMsgTFGoldenWrenchBroadcastEE.txt': 'GCSDK::CProtoBufMsg<CMsgTFGoldenWrenchBroadcast>', '__ZTV13CCallbackImplILi16EE.txt': 'CCallbackImpl<16>', '__ZTV26CHudItemEffectMeter_WeaponI11C_TFJarMilkE.txt': 'CHudItemEffectMeter_Weapon<C_TFJarMilk>', '__ZTV22CAchievementSaveThread.txt': 'CAchievementSaveThread', '__ZTV24C_OP_OrientTo2dDirection.txt': 'C_OP_OrientTo2dDirection', '__ZTV30CMsgSOCacheSubscriptionRefresh.txt': 'CMsgSOCacheSubscriptionRefresh', '__ZTV26CHudItemEffectMeter_WeaponI20C_TFSniperRifleDecapE.txt': 'CHudItemEffectMeter_Weapon<C_TFSniperRifleDecap>', '__ZTV22C_InfoLightingRelative.txt': 'C_InfoLightingRelative', '__ZTV27CTFQuestObjectiveDefinition.txt': 'CTFQuestObjectiveDefinition', '__ZTV9CCallbackI17CTFGCClientSystem12LobbyEnter_tLb0EE.txt': 'CCallback<CTFGCClientSystem, LobbyEnter_t, false>', '__ZTV23CGCGiftReceivedResponse.txt': 'CGCGiftReceivedResponse', '__ZTV25C_TEKillPlayerAttachments.txt': 'C_TEKillPlayerAttachments', '__ZTV19CSoundControllerImp.txt': 'CSoundControllerImp', '__ZTVN5GCSDK22CProtoBufMsgMemoryPoolI29CMsgGCClientMarketDataRequestEE.txt': 'GCSDK::CProtoBufMsgMemoryPool<CMsgGCClientMarketDataRequest>', '__ZTV31C_TFRobotDestruction_RobotSpawn.txt': 'C_TFRobotDestruction_RobotSpawn', '__ZTV31CAchievementTF_KillChargingDemo.txt': 'CAchievementTF_KillChargingDemo', '__ZTV16CDllDemandLoader.txt': 'CDllDemandLoader', '__ZTV36CAchievementTFScout_KillChargedMedic.txt': 'CAchievementTFScout_KillChargedMedic', '__ZTV25CMsgGCReportAbuseResponse.txt': 'CMsgGCReportAbuseResponse', '__ZTV27CParticleOperatorDefinitionI15C_OP_SpinUpdateE.txt': 'CParticleOperatorDefinition<C_OP_SpinUpdate>', '__ZTV16CInterpolatedVarI16C_AnimationLayerE.txt': 'CInterpolatedVar<C_AnimationLayer>', '__ZTVN5GCSDK22CProtoBufMsgMemoryPoolI18CMsgSOSingleObjectEE.txt': 'GCSDK::CProtoBufMsgMemoryPool<CMsgSOSingleObject>', '__ZTV23CEntityDataInstantiatorI10ModelScaleE.txt': 'CEntityDataInstantiator<ModelScale>', '__ZTV19CDamageAccountPanel.txt': 'CDamageAccountPanel', '__ZTV14CColorProperty.txt': 'CColorProperty', '__ZTV22CRagdollBoltEnumerator.txt': 'CRagdollBoltEnumerator', '__ZTV48CMsgGC_Client_UseServerModificationItem_Response.txt': 'CMsgGC_Client_UseServerModificationItem_Response', '__ZTV21CEconTool_WrappedGift.txt': 'CEconTool_WrappedGift', '__ZTV27CParticleOperatorDefinitionI10C_OP_DecayE.txt': 'CParticleOperatorDefinition<C_OP_Decay>', '__ZTV18C_EnvScreenOverlay.txt': 'C_EnvScreenOverlay', '__ZTV18CPotteryWheelPanel.txt': 'CPotteryWheelPanel', '__ZTVN5GCSDK22CProtoBufMsgMemoryPoolI15CMsgClientHelloEE.txt': 'GCSDK::CProtoBufMsgMemoryPool<CMsgClientHello>', '__ZTVN4vgui5ImageE.txt': 'vgui::Image', '__ZTV41CAttributeIterator_GetTypedAttributeValueI27CAttribute_ItemSlotCriteriaS0_E.txt': 'CAttributeIterator_GetTypedAttributeValue<CAttribute_ItemSlotCriteria, CAttribute_ItemSlotCriteria>', '__ZTV33CAchievementTFScout_WellEarlyKill.txt': 'CAchievementTFScout_WellEarlyKill', '__ZTV17CPlayerSpawnCache.txt': 'CPlayerSpawnCache', '__ZTVN5GCSDK22CProtoBufMsgMemoryPoolI30CMsgLookupMultipleAccountNamesEE.txt': 'GCSDK::CProtoBufMsgMemoryPool<CMsgLookupMultipleAccountNames>', '__ZTV12HTMLInterior.txt': 'HTMLInterior', '__ZTVN5GCSDK18CProtoBufNetPacketE.txt': 'GCSDK::CProtoBufNetPacket', '__ZTV16CTFStorePageBase.txt': 'CTFStorePageBase', '__ZTV19CGCUpdateItemSchema.txt': 'CGCUpdateItemSchema', '__ZTV32CAchievementTFDoomsday_WinRounds.txt': 'CAchievementTFDoomsday_WinRounds', '__ZTV17CMsgGCReportAbuse.txt': 'CMsgGCReportAbuse', '__ZTVN5GCSDK12CProtoBufMsgI23CMsgMatchmakingProgressEE.txt': 'GCSDK::CProtoBufMsg<CMsgMatchmakingProgress>', '__ZTV30CMsgAMGetUserGameStatsResponse.txt': 'CMsgAMGetUserGameStatsResponse', '__ZTV11C_DustTrail.txt': 'C_DustTrail', '__ZTV16C_TeleportVortex.txt': 'C_TeleportVortex', '__ZTV11CPDumpPanel.txt': 'CPDumpPanel', '__ZTVN8CryptoPP18PK_SignatureScheme11KeyTooShortE.txt': 'CryptoPP::PK_SignatureScheme::KeyTooShort', '__ZTVN5GCSDK22CProtoBufMsgMemoryPoolI20CMsgReplicateConVarsEE.txt': 'GCSDK::CProtoBufMsgMemoryPool<CMsgReplicateConVars>', '__ZTV27CParticleOperatorDefinitionI29C_OP_SetControlPointPositionsE.txt': 'CParticleOperatorDefinition<C_OP_SetControlPointPositions>', '__ZTV38CMsgGameServerMatchmakingStatus_Player.txt': 'CMsgGameServerMatchmakingStatus_Player', '__ZTV15C_TEMuzzleFlash.txt': 'C_TEMuzzleFlash', '__ZTV18C_SlideshowDisplay.txt': 'C_SlideshowDisplay', '__ZTV29CTFGenericConfirmOptOutDialog.txt': 'CTFGenericConfirmOptOutDialog', '__ZTV31CMsgGC_GameServer_AuthChallenge.txt': 'CMsgGC_GameServer_AuthChallenge', '__ZTV40CAchievementTFDemoman_ParachuteKillGroup.txt': 'CAchievementTFDemoman_ParachuteKillGroup', '__ZTV28CMsgTFOtherJoinedChatChannel.txt': 'CMsgTFOtherJoinedChatChannel', '__ZTV36CAchievementTFDoomsday_DefendCarrier.txt': 'CAchievementTFDoomsday_DefendCarrier', '__ZTV20CParticleSystemQuery.txt': 'CParticleSystemQuery', '__ZTVN15CTFPlayerShared26NetworkVar_m_ConditionListE.txt': 'CTFPlayerShared::NetworkVar_m_ConditionList', '__ZTV18CCamoMaterialProxy.txt': 'CCamoMaterialProxy', '__ZTV34CAchievementTFPyro_BurnTeleportees.txt': 'CAchievementTFPyro_BurnTeleportees', '__ZTVN4vgui12ToggleButtonE.txt': 'vgui::ToggleButton', '__ZTVN4vgui19AnimationControllerE.txt': 'vgui::AnimationController', '__ZTV36CAchievementTFHeavy_AchieveProgress1.txt': 'CAchievementTFHeavy_AchieveProgress1', '__ZTV22CStorePreviewClassIcon.txt': 'CStorePreviewClassIcon', '__ZTVN26PrecacheEffectGlassShatter20ClientEffectRegisterE.txt': 'PrecacheEffectGlassShatter::ClientEffectRegister', '__ZTV13C_TFDRGPomson.txt': 'C_TFDRGPomson', '__ZTV7CReplay.txt': 'CReplay', '__ZTV16CMsgSaxxyAwarded.txt': 'CMsgSaxxyAwarded', '__ZTV15CFleckParticles.txt': 'CFleckParticles', '__ZTV23CWaterExplosionParticle.txt': 'CWaterExplosionParticle', '__ZTV16CHudArenaVsPanel.txt': 'CHudArenaVsPanel', '__ZTV14CMultiplyProxy.txt': 'CMultiplyProxy', '__ZTV13CTFFlagStatus.txt': 'CTFFlagStatus', '__ZTV17CEconTool_Default.txt': 'CEconTool_Default', '__ZTV18CPotteryWheelManip.txt': 'CPotteryWheelManip', '__ZTV20C_INIT_CreationNoise.txt': 'C_INIT_CreationNoise', '__ZTV23CSlideshowDisplayScreen.txt': 'CSlideshowDisplayScreen', '__ZTV11CMsgReadyUp.txt': 'CMsgReadyUp', '__ZTV18C_TEParticleSystem.txt': 'C_TEParticleSystem', '__ZTV16CReplayBasePanel.txt': 'CReplayBasePanel', '__ZTV21C_BaseExplosionEffect.txt': 'C_BaseExplosionEffect', '__ZTV12CBitmapPanel.txt': 'CBitmapPanel', '__ZTVN5GCSDK12CProtoBufMsgI31CMsgGC_GameServer_ResetIdentityEE.txt': 'GCSDK::CProtoBufMsg<CMsgGC_GameServer_ResetIdentity>', '__ZTV9CCallbackIN4vgui4HTMLE14HTML_JSAlert_tLb0EE.txt': 'CCallback<vgui::HTML, HTML_JSAlert_t, false>', '__ZTV36CGCLeaveGameAndPrepareToJoinPartyJob.txt': 'CGCLeaveGameAndPrepareToJoinPartyJob', '__ZTV34CAchievementTFMedic_AssistCapturer.txt': 'CAchievementTFMedic_AssistCapturer', '__ZTV12CArmoryPanel.txt': 'CArmoryPanel', '__ZTV11C_TFFireAxe.txt': 'C_TFFireAxe', '__ZTVN15CAboveWaterView15CReflectionViewE.txt': 'CAboveWaterView::CReflectionView', '__ZTV27CEconTool_ItemDynamicRecipe.txt': 'CEconTool_ItemDynamicRecipe', '__ZTV27CAchievementTFScout_FastCap.txt': 'CAchievementTFScout_FastCap', '__ZTV19CStatTrakIllumProxy.txt': 'CStatTrakIllumProxy', '__ZTV39CMsgGCItemPreviewItemBoughtNotification.txt': 'CMsgGCItemPreviewItemBoughtNotification', '__ZTVN5GCSDK12CProtoBufMsgI29CMsgSetHatEffectUseHeadOriginEE.txt': 'GCSDK::CProtoBufMsg<CMsgSetHatEffectUseHeadOrigin>', '__ZTVN8CryptoPP16HashInputTooLongE.txt': 'CryptoPP::HashInputTooLong', '__ZTV14ITFGenericBomb.txt': 'ITFGenericBomb', '__ZTV39CAchievementTFDemoman_KillXSappingSpies.txt': 'CAchievementTFDemoman_KillXSappingSpies', '__ZTV10CModePanel.txt': 'CModePanel', '__ZTV36CAchievementTFSoldier_ShootMultCrits.txt': 'CAchievementTFSoldier_ShootMultCrits', '__ZTV66CAchievementTFEngineer_RepairRecentlyDamagedSentryWhileBeingHealed.txt': 'CAchievementTFEngineer_RepairRecentlyDamagedSentryWhileBeingHealed', '__ZTV34CAchievementTFSniper_TopScoreboard.txt': 'CAchievementTFSniper_TopScoreboard', '__ZTV17CBaseHudChatEntry.txt': 'CBaseHudChatEntry', '__ZTV11C_FireTrail.txt': 'C_FireTrail', '__ZTV38CAchievementTFHeavy_DefendControlPoint.txt': 'CAchievementTFHeavy_DefendControlPoint', '__ZTV9CTargetID.txt': 'CTargetID', '__ZTV23CPhysicsPropMultiplayer.txt': 'CPhysicsPropMultiplayer', '__ZTV15C_TEBubbleTrail.txt': 'C_TEBubbleTrail', '__ZTV7C_TFSMG.txt': 'C_TFSMG', '__ZTV26CHudItemEffectMeter_WeaponI18C_TFParticleCannonE.txt': 'CHudItemEffectMeter_Weapon<C_TFParticleCannon>', '__ZTV15C_OP_LockToBone.txt': 'C_OP_LockToBone', '__ZTV16FileWeaponInfo_t.txt': 'FileWeaponInfo_t', '__ZTV18CMsgSOSingleObject.txt': 'CMsgSOSingleObject', '__ZTV17CReplayInputPanel.txt': 'CReplayInputPanel', '__ZTV18CCopyableUtlVectorIN18econ_store_entry_t13CategoryTag_tE10CUtlMemoryIS1_iEE.txt': 'CCopyableUtlVector<econ_store_entry_t::CategoryTag_t, CUtlMemory<econ_store_entry_t::CategoryTag_t, int> >', '__ZTV32CAchievementTFSpy_FreezecamFlick.txt': 'CAchievementTFSpy_FreezecamFlick', '__ZTV28CMsgTFQuickplay_ScoreServers.txt': 'CMsgTFQuickplay_ScoreServers', '__ZTV30C_TFProjectile_SpellSpawnHorde.txt': 'C_TFProjectile_SpellSpawnHorde', '__ZTV17CMsgAMGetLicenses.txt': 'CMsgAMGetLicenses', '__ZTV15CMsgHttpRequest.txt': 'CMsgHttpRequest', '__ZTV27CItemCriteriaSelectionPanel.txt': 'CItemCriteriaSelectionPanel', '__ZTV30C_Test_ProxyToggle_Networkable.txt': 'C_Test_ProxyToggle_Networkable', '__ZTVN5GCSDK12CProtoBufMsgI32CMsgTFCoaching_RemoveFromCoachesEE.txt': 'GCSDK::CProtoBufMsg<CMsgTFCoaching_RemoveFromCoaches>', '__ZTVN8CryptoPP12AbstractRingINS_7IntegerEE20MultiplicativeGroupTE.txt': 'CryptoPP::AbstractRing<CryptoPP::Integer>::MultiplicativeGroupT', '__ZTV9CTempEnts.txt': 'CTempEnts', '__ZTV17CEconTool_NameTag.txt': 'CEconTool_NameTag', '__ZTV42CAchievementTFSpy_SpyMedicHealingKillEnemy.txt': 'CAchievementTFSpy_SpyMedicHealingKillEnemy', '__ZTV38CAchievementTFMedic_CounterUbercharges.txt': 'CAchievementTFMedic_CounterUbercharges', '__ZTV33CMsgTFCoaching_RemoveCurrentCoach.txt': 'CMsgTFCoaching_RemoveCurrentCoach', '__ZTVN5GCSDK12CProtoBufMsgI48CMsgGC_Client_UseServerModificationItem_ResponseEE.txt': 'GCSDK::CProtoBufMsg<CMsgGC_Client_UseServerModificationItem_Response>', '__ZTV33CAchievementTFHeavy_KillCritPunch.txt': 'CAchievementTFHeavy_KillCritPunch', '__ZTV29CMsgHttpRequest_RequestHeader.txt': 'CMsgHttpRequest_RequestHeader', '__ZTVN5GCSDK22CProtoBufMsgMemoryPoolI23CMsgApplyToolToBaseItemEE.txt': 'GCSDK::CProtoBufMsgMemoryPool<CMsgApplyToolToBaseItem>', '__ZTVN5GCSDK30CGCClientSharedObjectTypeCacheE.txt': 'GCSDK::CGCClientSharedObjectTypeCache', '__ZTV26CHudItemEffectMeter_WeaponI7C_TFJarE.txt': 'CHudItemEffectMeter_Weapon<C_TFJar>', '__ZTVN17PrecacheTFTracers20ClientEffectRegisterE.txt': 'PrecacheTFTracers::ClientEffectRegister', '__ZTV13CPDAPanel_Spy.txt': 'CPDAPanel_Spy', '__ZTV16CLinearRampProxy.txt': 'CLinearRampProxy', '__ZTV21CTransformManipulator.txt': 'CTransformManipulator', '__ZTV18IModelLoadCallback.txt': 'IModelLoadCallback', '__ZTV20CToolFrameworkClient.txt': 'CToolFrameworkClient', '__ZTV41CAttributeIterator_GetTypedAttributeValueI29CAttribute_WorldItemPlacementS0_E.txt': 'CAttributeIterator_GetTypedAttributeValue<CAttribute_WorldItemPlacement, CAttribute_WorldItemPlacement>', '__ZTVN5GCSDK12CProtoBufMsgI24CMsgGCResetStrangeScoresEE.txt': 'GCSDK::CProtoBufMsg<CMsgGCResetStrangeScores>', '__ZTV35CAchievementTFHeavy_PayloadCapGrind.txt': 'CAchievementTFHeavy_PayloadCapGrind', '__ZTV27CParticleOperatorDefinitionI9C_OP_SpinE.txt': 'CParticleOperatorDefinition<C_OP_Spin>', '__ZTV27CMsgTFPlayerFailedToConnect.txt': 'CMsgTFPlayerFailedToConnect', '__ZTV37CAchievementTFSpy_SpyKillSpyWithKnife.txt': 'CAchievementTFSpy_SpyKillSpyWithKnife', '__ZTVN5GCSDK22CProtoBufMsgMemoryPoolI23CMsgTFRequestTF2FriendsEE.txt': 'GCSDK::CProtoBufMsgMemoryPool<CMsgTFRequestTF2Friends>', '__ZTV30CAchievementTFMedic_AssistPyro.txt': 'CAchievementTFMedic_AssistPyro', '__ZTV12CBaseAdPanel.txt': 'CBaseAdPanel', '__ZTV26CHudItemEffectMeter_WeaponI12C_TFLunchBoxE.txt': 'CHudItemEffectMeter_Weapon<C_TFLunchBox>', '__ZTV14C_TFBuffBanner.txt': 'C_TFBuffBanner', '__ZTV33CTFQuestPlayerDistanceRestriction.txt': 'CTFQuestPlayerDistanceRestriction', '__ZTV18CTFItemPickupPanel.txt': 'CTFItemPickupPanel', '__ZTV12CTFStyleInfo.txt': 'CTFStyleInfo', '__ZTV27CMsgApplyStrangeRestriction.txt': 'CMsgApplyStrangeRestriction', '__ZTVN8CryptoPP25PK_MessageAccumulatorBaseE.txt': 'CryptoPP::PK_MessageAccumulatorBase', '__ZTV18C_OP_RenderSprites.txt': 'C_OP_RenderSprites', '__ZTV24CSelectPlayerTargetPanel.txt': 'CSelectPlayerTargetPanel', '__ZTV36CAchievementTFDoomsday_PlayEachClass.txt': 'CAchievementTFDoomsday_PlayEachClass', '__ZTV13CPanelFactoryI19CPDAPanel_Spy_Invis20VGuiScreenInitData_tE.txt': 'CPanelFactory<CPDAPanel_Spy_Invis, VGuiScreenInitData_t>', '__ZTV25CInterpolatedVarArrayBaseI6QAngleLb1EE.txt': 'CInterpolatedVarArrayBase<QAngle, true>', '__ZTV22CMsgGC_GameServer_List.txt': 'CMsgGC_GameServer_List', '__ZTV14CSpyInvisProxy.txt': 'CSpyInvisProxy', '__ZTVN5GCSDK12CProtoBufMsgI33CMsgGCStorePurchaseCancelResponseEE.txt': 'GCSDK::CProtoBufMsg<CMsgGCStorePurchaseCancelResponse>', '__ZTV8CLCDPage.txt': 'CLCDPage', '__ZTV18CTradingWaitDialog.txt': 'CTradingWaitDialog', '__ZTV32CTFQuestPlayerJumpingRestriction.txt': 'CTFQuestPlayerJumpingRestriction', '__ZTV8CFmtStrNILi1024ELb0EE.txt': 'CFmtStrN<1024, false>', '__ZTV26CMsgHttpRequest_QueryParam.txt': 'CMsgHttpRequest_QueryParam', '__ZTV11CSpecButton.txt': 'CSpecButton', '__ZTVN8CryptoPP12BERDecodeErrE.txt': 'CryptoPP::BERDecodeErr', '__ZTV40CAchievementTFReplay_YouTube_Views_Tier1.txt': 'CAchievementTFReplay_YouTube_Views_Tier1', '__ZTV28C_OP_SetControlPointToPlayer.txt': 'C_OP_SetControlPointToPlayer', '__ZTV25CProxyBuildingRescueLevel.txt': 'CProxyBuildingRescueLevel', '__ZTV17CQuestStatusPanel.txt': 'CQuestStatusPanel', '__ZTVN5GCSDK12CProtoBufMsgI31CMsgTFRequestTF2FriendsResponseEE.txt': 'GCSDK::CProtoBufMsg<CMsgTFRequestTF2FriendsResponse>', '__ZTV32C_INIT_CreateFromParentParticles.txt': 'C_INIT_CreateFromParentParticles', '__ZTVN5GCSDK12CProtoBufMsgI38CMsgTFFreeTrialChooseMostHelpfulFriendEE.txt': 'GCSDK::CProtoBufMsg<CMsgTFFreeTrialChooseMostHelpfulFriend>', '__ZTV36CAchievementTFSniper_JarateMedicPair.txt': 'CAchievementTFSniper_JarateMedicPair', '__ZTV20CMsgTFThankedSomeone.txt': 'CMsgTFThankedSomeone', '__ZTVN5GCSDK6CGCMsgI19MsgGCGiftWrapItem_tEE.txt': 'GCSDK::CGCMsg<MsgGCGiftWrapItem_t>', '__ZTV15C_TEPhysicsProp.txt': 'C_TEPhysicsProp', '__ZTV22CDispenserControlPanel.txt': 'CDispenserControlPanel', '__ZTV16ClientModeShared.txt': 'ClientModeShared', '__ZTV40CAchievementTFDoomsday_DenyNeutralPickup.txt': 'CAchievementTFDoomsday_DenyNeutralPickup', '__ZTV14C_PlasmaSprite.txt': 'C_PlasmaSprite', '__ZTV27CParticleOperatorDefinitionI17C_OP_PositionLockE.txt': 'CParticleOperatorDefinition<C_OP_PositionLock>', '__ZTV20CGCCoaching_AskCoach.txt': 'CGCCoaching_AskCoach', '__ZTV19CDecalEmitterSystem.txt': 'CDecalEmitterSystem', '__ZTV26CGCMsgMemCachedGetResponse.txt': 'CGCMsgMemCachedGetResponse', '__ZTV37CAchievementTFHeavy_KillMidAirMinigun.txt': 'CAchievementTFHeavy_KillMidAirMinigun', '__ZTV13CPanelFactoryI26CPDAPanel_Spy_Invis_Pocket20VGuiScreenInitData_tE.txt': 'CPanelFactory<CPDAPanel_Spy_Invis_Pocket, VGuiScreenInitData_t>', '__ZTV25EntityParticleTrailInfo_t.txt': 'EntityParticleTrailInfo_t', '__ZTV14CAttributeList.txt': 'CAttributeList', '__ZTV14CMsgMvMVictory.txt': 'CMsgMvMVictory', '__ZTV21CCommandChainingPanel.txt': 'CCommandChainingPanel', '__ZTV14C_EconItemView.txt': 'C_EconItemView', '__ZTV43CAchievementTFScout_DestroySentryWithPistol.txt': 'CAchievementTFScout_DestroySentryWithPistol', '__ZTV23C_TFBotHintEngineerNest.txt': 'C_TFBotHintEngineerNest', '__ZTVN5GCSDK22CProtoBufMsgMemoryPoolI22CMsgGC_GameServer_ListEE.txt': 'GCSDK::CProtoBufMsgMemoryPool<CMsgGC_GameServer_List>', '__ZTV34CTraceFilterSkipPlayerAndViewModel.txt': 'CTraceFilterSkipPlayerAndViewModel', '__ZTV9CCallbackIN4vgui4HTMLE19HTML_ChangedTitle_tLb0EE.txt': 'CCallback<vgui::HTML, HTML_ChangedTitle_t, false>', '__ZTV20CRocketTrailParticle.txt': 'CRocketTrailParticle', '__ZTV61CWorkshop_SetItemPaymentRules_Request_WorkshopItemPaymentRule.txt': 'CWorkshop_SetItemPaymentRules_Request_WorkshopItemPaymentRule', '__ZTV27CAttribute_ItemSlotCriteria.txt': 'CAttribute_ItemSlotCriteria', '__ZTV30CAchievementTFSoldier_GibGrind.txt': 'CAchievementTFSoldier_GibGrind', '__ZTV13C_TFGameRules.txt': 'C_TFGameRules', '__ZTV33CAchievementTF_MvM_UseBuildBottle.txt': 'CAchievementTF_MvM_UseBuildBottle', '__ZTV37CAchievementTFSoldier_RJEqualizerKill.txt': 'CAchievementTFSoldier_RJEqualizerKill', '__ZTV24CStandaloneQuickplayMenu.txt': 'CStandaloneQuickplayMenu', '__ZTV12CPlayerState.txt': 'CPlayerState', '__ZTV34CAchievementTFSpy_SapBuildingGrind.txt': 'CAchievementTFSpy_SapBuildingGrind', '__ZTV19CMsgExitMatchmaking.txt': 'CMsgExitMatchmaking', '__ZTV21CEconTool_WeddingRing.txt': 'CEconTool_WeddingRing', '__ZTVN10C_Hairball17CHairballDelegateE.txt': 'C_Hairball::CHairballDelegate', '__ZTV37CAchievementTFSoldier_DestroyStickies.txt': 'CAchievementTFSoldier_DestroyStickies', '__ZTV33CAchievementTF_MvM_EarnMoneyBonus.txt': 'CAchievementTF_MvM_EarnMoneyBonus', '__ZTVN5GCSDK6CGCMsgI18MsgGCDeliverGift_tEE.txt': 'GCSDK::CGCMsg<MsgGCDeliverGift_t>', '__ZTV35CAchievementTFDemoman_CritSwordKill.txt': 'CAchievementTFDemoman_CritSwordKill', '__ZTVN5GCSDK6CGCMsgI23MsgGCStandardResponse_tEE.txt': 'GCSDK::CGCMsg<MsgGCStandardResponse_t>', '__ZTV16CSimpleWorldView.txt': 'CSimpleWorldView', '__ZTV16CTFClassMenu_Red.txt': 'CTFClassMenu_Red', '__ZTV31CMsgGC_GameServer_ResetIdentity.txt': 'CMsgGC_GameServer_ResetIdentity', '__ZTV21C_OP_PlanarConstraint.txt': 'C_OP_PlanarConstraint', '__ZTV20CSOTFMapContribution.txt': 'CSOTFMapContribution', '__ZTV19C_BaseObjectUpgrade.txt': 'C_BaseObjectUpgrade', '__ZTV16CPlayerLocalData.txt': 'CPlayerLocalData', '__ZTVN4vgui13PropertySheetE.txt': 'vgui::PropertySheet', '__ZTV25CGCClientJobClientWelcome.txt': 'CGCClientJobClientWelcome', '__ZTV19CSelectPlayerDialog.txt': 'CSelectPlayerDialog', '__ZTVN6google8protobuf11MessageLiteE.txt': 'google::protobuf::MessageLite', '__ZTV43CAchievementTFDemoman_KillPlayerYouDidntSee.txt': 'CAchievementTFDemoman_KillPlayerYouDidntSee', '__ZTV17C_EconWearableGib.txt': 'C_EconWearableGib', '__ZTV35CAchievementTFTaunt_DosidoMeleeKill.txt': 'CAchievementTFTaunt_DosidoMeleeKill', '__ZTVN5GCSDK12CProtoBufMsgI17CMsgGCReportAbuseEE.txt': 'GCSDK::CProtoBufMsg<CMsgGCReportAbuse>', '__ZTV8C_TFClub.txt': 'C_TFClub', '__ZTV10C_OP_Noise.txt': 'C_OP_Noise', '__ZTV18MenuItemCheckImage.txt': 'MenuItemCheckImage', '__ZTV17CPoseDebuggerStub.txt': 'CPoseDebuggerStub', '__ZTV32CEconTool_TFEventEnableHalloween.txt': 'CEconTool_TFEventEnableHalloween', '__ZTV25CTFStorePage_SpecialPromo.txt': 'CTFStorePage_SpecialPromo', '__ZTV24CChildOperatorDefinition.txt': 'CChildOperatorDefinition', '__ZTV49CAchievementTFPyro_KillFromBehindWithFlamethrower.txt': 'CAchievementTFPyro_KillFromBehindWithFlamethrower', '__ZTVN5GCSDK22CProtoBufMsgMemoryPoolI20CMsgApplyStrangePartEE.txt': 'GCSDK::CProtoBufMsgMemoryPool<CMsgApplyStrangePart>', '__ZTV25C_TFProjectile_EnergyBall.txt': 'C_TFProjectile_EnergyBall', '__ZTV32CRecipeComponentMatchingIterator.txt': 'CRecipeComponentMatchingIterator', '__ZTV21CTFQuestEventListener.txt': 'CTFQuestEventListener', '__ZTV17C_TFPasstimeLogic.txt': 'C_TFPasstimeLogic', '__ZTV22CMsgGCMultiplexMessage.txt': 'CMsgGCMultiplexMessage', '__ZTVN5GCSDK12CPartyInviteE.txt': 'GCSDK::CPartyInvite', '__ZTV24CTFKillEaterNotification.txt': 'CTFKillEaterNotification', '__ZTV13CCallbackImplILi48EE.txt': 'CCallbackImpl<48>', '__ZTV36CAchievementTFHeavy_TeleportFastKill.txt': 'CAchievementTFHeavy_TeleportFastKill', '__ZTVN8CryptoPP14CryptoMaterial15InvalidMaterialE.txt': 'CryptoPP::CryptoMaterial::InvalidMaterial', '__ZTV28CMaterialModifyAnimatedProxy.txt': 'CMaterialModifyAnimatedProxy', '__ZTV27CParticleOperatorDefinitionI15C_OP_LockToBoneE.txt': 'CParticleOperatorDefinition<C_OP_LockToBone>', '__ZTV21CEconTool_Strangifier.txt': 'CEconTool_Strangifier', '__ZTVN5GCSDK22CProtoBufMsgMemoryPoolI20CMsgUpdateItemSchemaEE.txt': 'GCSDK::CProtoBufMsgMemoryPool<CMsgUpdateItemSchema>', '__ZTVN4vgui11ProgressBarE.txt': 'vgui::ProgressBar', '__ZTVN6google8protobuf10ReflectionE.txt': 'google::protobuf::Reflection', '__ZTV12CTFStatPanel.txt': 'CTFStatPanel', '__ZTV9CCallbackIN4vgui4HTMLE21HTML_VerticalScroll_tLb0EE.txt': 'CCallback<vgui::HTML, HTML_VerticalScroll_t, false>', '__ZTV19CStoreViewCartPanel.txt': 'CStoreViewCartPanel', '__ZTV12C_OP_SpinYaw.txt': 'C_OP_SpinYaw', '__ZTV17CGCThankedSomeone.txt': 'CGCThankedSomeone', '__ZTV39CMsgGCUpdateSubGCSessionInfo_CMsgUpdate.txt': 'CMsgGCUpdateSubGCSessionInfo_CMsgUpdate', '__ZTV25CEconTool_KillStreakifier.txt': 'CEconTool_KillStreakifier', '__ZTV15CItemGeneration.txt': 'CItemGeneration', '__ZTV34CEconPreviewItemBoughtNotification.txt': 'CEconPreviewItemBoughtNotification', '__ZTV21C_InfoOverlayAccessor.txt': 'C_InfoOverlayAccessor', '__ZTV16CBaseRopePhysics.txt': 'CBaseRopePhysics', '__ZTV16C_TFPistol_Scout.txt': 'C_TFPistol_Scout', '__ZTV41CMsgRequestItemPurgatory_FinalizePurchase.txt': 'CMsgRequestItemPurgatory_FinalizePurchase', '__ZTV15CHudTrainingMsg.txt': 'CHudTrainingMsg', '__ZTV11CTFTeamMenu.txt': 'CTFTeamMenu', '__ZTVN5GCSDK22CProtoBufMsgMemoryPoolI21CMsgDevNewItemRequestEE.txt': 'GCSDK::CProtoBufMsgMemoryPool<CMsgDevNewItemRequest>', '__ZTV21CEconTool_UpgradeCard.txt': 'CEconTool_UpgradeCard', '__ZTV7C_Tesla.txt': 'C_Tesla', '__ZTV37CAchievementTFSoldier_DuoSoldierKills.txt': 'CAchievementTFSoldier_DuoSoldierKills', '__ZTVN4vgui19AnimatingImagePanelE.txt': 'vgui::AnimatingImagePanel', '__ZTV27CRotatingObjectControlPanel.txt': 'CRotatingObjectControlPanel', '__ZTV39CMsgTFQuickplay_ScoreServers_ServerInfo.txt': 'CMsgTFQuickplay_ScoreServers_ServerInfo', '__ZTV31CMsgIncrementKillCountAttribute.txt': 'CMsgIncrementKillCountAttribute', '__ZTV25CLobbyPendingPlayerReport.txt': 'CLobbyPendingPlayerReport', '__ZTV33CTFQuestPlayerDisguiseRestriction.txt': 'CTFQuestPlayerDisguiseRestriction', '__ZTV19CAttributeContainer.txt': 'CAttributeContainer', '__ZTV19ParticleSphereProxy.txt': 'ParticleSphereProxy', '__ZTV25C_TFRobotDestructionLogic.txt': 'C_TFRobotDestructionLogic', '__ZTV14CountdownTimer.txt': 'CountdownTimer', '__ZTV34CAchievementTF_MvM_CompletePopFile.txt': 'CAchievementTF_MvM_CompletePopFile', '__ZTV14C_FuncConveyor.txt': 'C_FuncConveyor', '__ZTV21CMsgInvitationCreated.txt': 'CMsgInvitationCreated', '__ZTVN6google8protobuf2io17ArrayOutputStreamE.txt': 'google::protobuf::io::ArrayOutputStream', '__ZTVN5GCSDK12CProtoBufMsgI23CMsgTFVoteKickBanPlayerEE.txt': 'GCSDK::CProtoBufMsg<CMsgTFVoteKickBanPlayer>', '__ZTV9C_EnvWind.txt': 'C_EnvWind', '__ZTVN19PrecachePlayerDecal20ClientEffectRegisterE.txt': 'PrecachePlayerDecal::ClientEffectRegister', '__ZTV27C_INIT_CreateFromPlaneCache.txt': 'C_INIT_CreateFromPlaneCache', '__ZTV12CTFHudEscort.txt': 'CTFHudEscort', '__ZTV14C_TFScatterGun.txt': 'C_TFScatterGun', '__ZTV37CAchievementTFSoldier_KillWhileOnFire.txt': 'CAchievementTFSoldier_KillWhileOnFire', '__ZTV15CEconItemSystem.txt': 'CEconItemSystem', '__ZTVN5GCSDK12CProtoBufMsgI40CMsgGCRemoveCustomizationAttributeSimpleEE.txt': 'GCSDK::CProtoBufMsg<CMsgGCRemoveCustomizationAttributeSimple>', '__ZTV15CMemberFunctor0IP18CParallelProcessorI22ParticleSimListEntry_t21CFuncJobItemProcessorIS1_EEMS4_FvvE12CRefCounted1I8CFunctor20CRefCountServiceBaseILb1E6CRefMTEE18CFuncMemPolicyNoneE.txt': 'CMemberFunctor0<CParallelProcessor<ParticleSimListEntry_t, CFuncJobItemProcessor<ParticleSimListEntry_t> >*, void (CParallelProcessor<ParticleSimListEntry_t, CFuncJobItemProcessor<ParticleSimListEntry_t> >::*)(), CRefCounted1<CFunctor, CRefCountServiceBase<true, CRefMT> >, CFuncMemPolicyNone>', '__ZTVN8CryptoPP14InputRejectingINS_6FilterEE13InputRejectedE.txt': 'CryptoPP::InputRejecting<CryptoPP::Filter>::InputRejected', '__ZTV25CMsgRemovePlayerFromLobby.txt': 'CMsgRemovePlayerFromLobby', '__ZTV27C_OP_WorldCollideConstraint.txt': 'C_OP_WorldCollideConstraint', '__ZTV27CParticleOperatorDefinitionI25C_OP_InstantaneousEmitterE.txt': 'CParticleOperatorDefinition<C_OP_InstantaneousEmitter>', '__ZTV8CFmtStrNILi8192ELb0EE.txt': 'CFmtStrN<8192, false>', '__ZTV17CLCDItemAggregate.txt': 'CLCDItemAggregate', '__ZTV26C_ViewmodelAttachmentModel.txt': 'C_ViewmodelAttachmentModel', '__ZTV31CMsgGCStorePurchaseInitResponse.txt': 'CMsgGCStorePurchaseInitResponse', '__ZTV18C_TFProjectile_Jar.txt': 'C_TFProjectile_Jar', '__ZTV41CAchievementTFDemoman_DecapitateEqualizer.txt': 'CAchievementTFDemoman_DecapitateEqualizer', '__ZTV33CAchievementTFSoldier_BuffFriends.txt': 'CAchievementTFSoldier_BuffFriends', '__ZTV19IDecalEmitterSystem.txt': 'IDecalEmitterSystem', '__ZTV13CReplayButton.txt': 'CReplayButton', '__ZTV29CControlPointIconCapturePulse.txt': 'CControlPointIconCapturePulse', '__ZTV14CTFDuelSummary.txt': 'CTFDuelSummary', '__ZTV9CCallbackIN4vgui4HTMLE20HTML_SearchResults_tLb0EE.txt': 'CCallback<vgui::HTML, HTML_SearchResults_t, false>', '__ZTV45CAchievementTFDemoman_KillPlayerAfterTeleport.txt': 'CAchievementTFDemoman_KillPlayerAfterTeleport', '__ZTV18CVisibleShadowList.txt': 'CVisibleShadowList', '__ZTV40CAchievementTFDemoman_KillXHeaviesAtFull.txt': 'CAchievementTFDemoman_KillXHeaviesAtFull', '__ZTV15CStringProperty.txt': 'CStringProperty', '__ZTVN4vgui18FileCompletionMenuE.txt': 'vgui::FileCompletionMenu', '__ZTV12CEqualsProxy.txt': 'CEqualsProxy', '__ZTV26CMsgTFOtherLeftChatChannel.txt': 'CMsgTFOtherLeftChatChannel', '__ZTV42CAchievementTFPowerhouse_KillCappingPlayer.txt': 'CAchievementTFPowerhouse_KillCappingPlayer', '__ZTV18CCenterStringLabel.txt': 'CCenterStringLabel', '__ZTV17CWeaponInvisProxy.txt': 'CWeaponInvisProxy', '__ZTV32CAchievementTFPyro_BurnMedicPair.txt': 'CAchievementTFPyro_BurnMedicPair', '__ZTV27CTFCraftingRecipeDefinition.txt': 'CTFCraftingRecipeDefinition', '__ZTV28CGCRequestTF2FriendsResponse.txt': 'CGCRequestTF2FriendsResponse', '__ZTVN8CryptoPP9ByteQueueE.txt': 'CryptoPP::ByteQueue', '__ZTV32CAchievementTF_MvM_PyroBombReset.txt': 'CAchievementTF_MvM_PyroBombReset', '__ZTV17C_ObjectDispenser.txt': 'C_ObjectDispenser', '__ZTV40CAchievementTFEngineer_MoveSentryGetKill.txt': 'CAchievementTFEngineer_MoveSentryGetKill', '__ZTV21C_TFObjectiveResource.txt': 'C_TFObjectiveResource', '__ZTV22CEconRequirementDialog.txt': 'CEconRequirementDialog', '__ZTVN4vgui10GraphPanelE.txt': 'vgui::GraphPanel', '__ZTV20CEngyDestroyMenuItem.txt': 'CEngyDestroyMenuItem', '__ZTV34CAchievementTFSpy_AchieveProgress3.txt': 'CAchievementTFSpy_AchieveProgress3', '__ZTVN5GCSDK22CProtoBufMsgMemoryPoolI21CGCMsgTFHelloResponseEE.txt': 'GCSDK::CProtoBufMsgMemoryPool<CGCMsgTFHelloResponse>', '__ZTV12CShadowProxy.txt': 'CShadowProxy', '__ZTV12C_OP_FadeOut.txt': 'C_OP_FadeOut', '__ZTV28CMsgGC_GameServer_AuthResult.txt': 'CMsgGC_GameServer_AuthResult', '__ZTV23CTFAskCoachNotification.txt': 'CTFAskCoachNotification', '__ZTV27CParticleOperatorDefinitionI18C_OP_RenderSpritesE.txt': 'CParticleOperatorDefinition<C_OP_RenderSprites>', '__ZTV15CWorldDimsProxy.txt': 'CWorldDimsProxy', '__ZTV29CMainMenuNotificationsControl.txt': 'CMainMenuNotificationsControl', '__ZTV40CAchievementTFFoundry_BackAndForthBattle.txt': 'CAchievementTFFoundry_BackAndForthBattle', '__ZTV11CPrediction.txt': 'CPrediction', '__ZTV41CMsgGCQuestObjective_PointsChangeResponse.txt': 'CMsgGCQuestObjective_PointsChangeResponse', '__ZTV14C_FuncRotating.txt': 'C_FuncRotating', '__ZTV32CMsgAMSendEmail_ReplacementToken.txt': 'CMsgAMSendEmail_ReplacementToken', '__ZTV22CParticleEffectBinding.txt': 'CParticleEffectBinding', '__ZTV17CTFClassMenu_Blue.txt': 'CTFClassMenu_Blue', '__ZTV37CAchievementTFSniper_AchieveProgress2.txt': 'CAchievementTFSniper_AchieveProgress2', '__ZTV29CAchievementTFMedic_HealGrind.txt': 'CAchievementTFMedic_HealGrind', '__ZTV30CPDAPanel_Spy_Invis_Pocket_TTG.txt': 'CPDAPanel_Spy_Invis_Pocket_TTG', '__ZTV32CServerNotConnectedToSteamDialog.txt': 'CServerNotConnectedToSteamDialog', '__ZTV34CAchievementTFSniper_SpyKukriKills.txt': 'CAchievementTFSniper_SpyKukriKills', '__ZTV27CParticleOperatorDefinitionI26C_INIT_RemapScalarToVectorE.txt': 'CParticleOperatorDefinition<C_INIT_RemapScalarToVector>', '__ZTV17CAutoFittingLabel.txt': 'CAutoFittingLabel', '__ZTV23C_TFParachute_Secondary.txt': 'C_TFParachute_Secondary', '__ZTV9IViewPort.txt': 'IViewPort', '__ZTV27C_OP_MaintainSequentialPath.txt': 'C_OP_MaintainSequentialPath', '__ZTV19CHudMenuEngyDestroy.txt': 'CHudMenuEngyDestroy', '__ZTV26CHudItemEffectMeter_WeaponI12C_TFBuffItemE.txt': 'CHudItemEffectMeter_Weapon<C_TFBuffItem>', '__ZTV10C_TFShovel.txt': 'C_TFShovel', '__ZTV20C_OP_OscillateScalar.txt': 'C_OP_OscillateScalar', '__ZTV21C_INIT_RandomSequence.txt': 'C_INIT_RandomSequence', '__ZTV24CMsgTFCoaching_FindCoach.txt': 'CMsgTFCoaching_FindCoach', '__ZTV27CShowMannUpLootNotification.txt': 'CShowMannUpLootNotification', '__ZTV14SnowFallEffect.txt': 'SnowFallEffect', '__ZTV18C_TEFootprintDecal.txt': 'C_TEFootprintDecal', '__ZTV41CAttributeIterator_GetTypedAttributeValueI33CAttribute_DynamicRecipeComponentS0_E.txt': 'CAttributeIterator_GetTypedAttributeValue<CAttribute_DynamicRecipeComponent, CAttribute_DynamicRecipeComponent>', '__ZTVN4vgui11CItemButtonE.txt': 'vgui::CItemButton', '__ZTV9CCallbackI17CInventoryManager20PersonaStateChange_tLb0EE.txt': 'CCallback<CInventoryManager, PersonaStateChange_t, false>', '__ZTV14CLampHaloProxy.txt': 'CLampHaloProxy', '__ZTVN5GCSDK12CProtoBufMsgI16CMsgSaxxyAwardedEE.txt': 'GCSDK::CProtoBufMsg<CMsgSaxxyAwarded>', '__ZTV20C_TFWearableRobotArm.txt': 'C_TFWearableRobotArm', '__ZTV42CAchievementTFSpy_SpyKnifeKillWhileJarated.txt': 'CAchievementTFSpy_SpyKnifeKillWhileJarated', '__ZTVN5GCSDK22CProtoBufMsgMemoryPoolI29CMsgApplyStrangeCountTransferEE.txt': 'GCSDK::CProtoBufMsgMemoryPool<CMsgApplyStrangeCountTransfer>', '__ZTV19CUtlNoEscConversion.txt': 'CUtlNoEscConversion', '__ZTV31CAchievementTFDemoman_TauntKill.txt': 'CAchievementTFDemoman_TauntKill', '__ZTV19CTFFlagCalloutPanel.txt': 'CTFFlagCalloutPanel', '__ZTV23CCustomTextureToolCache.txt': 'CCustomTextureToolCache', '__ZTV21CMvMVictoryMannUpLoot.txt': 'CMvMVictoryMannUpLoot', '__ZTV39CAchievementTFMedic_AssistChargeSoldier.txt': 'CAchievementTFMedic_AssistChargeSoldier', '__ZTV18C_LightGlowOverlay.txt': 'C_LightGlowOverlay', '__ZTV26CGCCoaching_RemovedAsCoach.txt': 'CGCCoaching_RemovedAsCoach', '__ZTV34CAchievementTFDemoman_KillXCapping.txt': 'CAchievementTFDemoman_KillXCapping', '__ZTV13C_TFStickBomb.txt': 'C_TFStickBomb', '__ZTV24CMsgSelectPresetForClass.txt': 'CMsgSelectPresetForClass', '__ZTVN5GCSDK14CGCSOUpdateJobE.txt': 'GCSDK::CGCSOUpdateJob', '__ZTVN5GCSDK22CProtoBufMsgMemoryPoolI14CGCMsgTFSyncExEE.txt': 'GCSDK::CProtoBufMsgMemoryPool<CGCMsgTFSyncEx>', '__ZTV31CAchievementTFHeavy_DamageTaken.txt': 'CAchievementTFHeavy_DamageTaken', '__ZTV25CFastDetailLeafSpriteList.txt': 'CFastDetailLeafSpriteList', '__ZTV20CSOEconItemAttribute.txt': 'CSOEconItemAttribute', '__ZTV22CQuestObjectiveManager.txt': 'CQuestObjectiveManager', '__ZTV14C_BoneFollower.txt': 'C_BoneFollower', '__ZTV14IViewPortPanel.txt': 'IViewPortPanel', '__ZTVN12_GLOBAL__N_114CYouTubeSystemE.txt': '(anonymous namespace)::CYouTubeSystem', '__ZTV12CBreakParser.txt': 'CBreakParser', '__ZTVN5GCSDK6CGCMsgI19MsgGCSetItemStyle_tEE.txt': 'GCSDK::CGCMsg<MsgGCSetItemStyle_t>', '__ZTV11CPrecipHack.txt': 'CPrecipHack', '__ZTV17CItemDiscardPanel.txt': 'CItemDiscardPanel', '__ZTV9CCallbackIN4vgui4HTMLE18HTML_HideToolTip_tLb0EE.txt': 'CCallback<vgui::HTML, HTML_HideToolTip_t, false>', '__ZTV23C_ColorCorrectionVolume.txt': 'C_ColorCorrectionVolume', '__ZTV18CMessageCharsPanel.txt': 'CMessageCharsPanel', '__ZTV22CCommentaryModelViewer.txt': 'CCommentaryModelViewer', '__ZTV18IBonusPackAutoList.txt': 'IBonusPackAutoList', '__ZTVN8CryptoPP14InputRejectingINS_22BufferedTransformationEE13InputRejectedE.txt': 'CryptoPP::InputRejecting<CryptoPP::BufferedTransformation>::InputRejected', '__ZTV23CLadderLobbyLeaderboard.txt': 'CLadderLobbyLeaderboard', '__ZTV13C_TFRootPanel.txt': 'C_TFRootPanel', '__ZTV33CAchievementTFSnakewater_TeamKill.txt': 'CAchievementTFSnakewater_TeamKill', '__ZTV13CTFPlayerInfo.txt': 'CTFPlayerInfo', '__ZTV14CBaseGameStats.txt': 'CBaseGameStats', '__ZTV27CParticleOperatorDefinitionI37C_OP_MovementRotateParticleAroundAxisE.txt': 'CParticleOperatorDefinition<C_OP_MovementRotateParticleAroundAxis>', '__ZTV21ClientWorldListInfo_t.txt': 'ClientWorldListInfo_t', '__ZTV21C_TFPEPBrawlerBlaster.txt': 'C_TFPEPBrawlerBlaster', '__ZTV27CParticleOperatorDefinitionI23C_OP_DistanceBetweenCPsE.txt': 'CParticleOperatorDefinition<C_OP_DistanceBetweenCPs>', '__ZTV31CAchievementTFSoldier_KillTaunt.txt': 'CAchievementTFSoldier_KillTaunt', '__ZTV9CHLClient.txt': 'CHLClient', '__ZTV9C_PhysBox.txt': 'C_PhysBox', '__ZTV20C_TFProjectile_Arrow.txt': 'C_TFProjectile_Arrow', '__ZTV33CAchievementTFPyro_IgniteFlaregun.txt': 'CAchievementTFPyro_IgniteFlaregun', '__ZTV25CBroadcastRecipientFilter.txt': 'CBroadcastRecipientFilter', '__ZTV13C_FuncMonitor.txt': 'C_FuncMonitor', '__ZTV11C_TFJarMilk.txt': 'C_TFJarMilk', '__ZTV51CAchievementTFEngineer_ManualSentryKillsBeyondRange.txt': 'CAchievementTFEngineer_ManualSentryKillsBeyondRange', '__ZTV16CDataManagerBase.txt': 'CDataManagerBase', '__ZTV27IHudItemEffectMeterAutoList.txt': 'IHudItemEffectMeterAutoList', '__ZTV43CAchievementTFEngineer_ManualCloakedSpyKill.txt': 'CAchievementTFEngineer_ManualCloakedSpyKill', '__ZTV17C_BonusRoundLogic.txt': 'C_BonusRoundLogic', '__ZTV72CWorkshop_PopulateItemDescriptions_Request_ItemDescriptionsLanguageBlock.txt': 'CWorkshop_PopulateItemDescriptions_Request_ItemDescriptionsLanguageBlock', '__ZTV36CAchievementTFSpy_SpyBackstabSnipers.txt': 'CAchievementTFSpy_SpyBackstabSnipers', '__ZTV26CHudItemEffectMeter_WeaponI17C_TFWeaponBuilderE.txt': 'CHudItemEffectMeter_Weapon<C_TFWeaponBuilder>', '__ZTV47CMsgGC_GameServer_ServerModificationItemExpired.txt': 'CMsgGC_GameServer_ServerModificationItemExpired', '__ZTV16C_SunGlowOverlay.txt': 'C_SunGlowOverlay', '__ZTV38CAchievementTFHalloweenCraftSaxtonMask.txt': 'CAchievementTFHalloweenCraftSaxtonMask', '__ZTV28CTFHudPasstimeOffscreenArrow.txt': 'CTFHudPasstimeOffscreenArrow', '__ZTV33CAchievementTFScout_SurviveDamage.txt': 'CAchievementTFScout_SurviveDamage', '__ZTV36CAchievementTFMedic_AchieveProgress1.txt': 'CAchievementTFMedic_AchieveProgress1', '__ZTVN5GCSDK12CProtoBufMsgI12CGCMsgTFSyncEE.txt': 'GCSDK::CProtoBufMsg<CGCMsgTFSync>', '__ZTV28CMsgSOCacheSubscriptionCheck.txt': 'CMsgSOCacheSubscriptionCheck', '__ZTV18condition_source_t.txt': 'condition_source_t', '__ZTV36CAchievementTF_MvM_KillMedicsCharged.txt': 'CAchievementTF_MvM_KillMedicsCharged', '__ZTVN5GCSDK22CProtoBufMsgMemoryPoolI39CMsgGC_GameServer_ResetIdentityResponseEE.txt': 'GCSDK::CProtoBufMsgMemoryPool<CMsgGC_GameServer_ResetIdentityResponse>', '__ZTVN8CryptoPP14NameValuePairs17ValueTypeMismatchE.txt': 'CryptoPP::NameValuePairs::ValueTypeMismatch', '__ZTV40CGCClient2GCEconPreviewDataBlockResponse.txt': 'CGCClient2GCEconPreviewDataBlockResponse', '__ZTV11CHUDAutoAim.txt': 'CHUDAutoAim', '__ZTV17C_EntityClassListI13C_PointCameraE.txt': 'C_EntityClassList<C_PointCamera>', '__ZTV23CReplayPreviewPanelBase.txt': 'CReplayPreviewPanelBase', '__ZTV41CAttributeIterator_GetTypedAttributeValueI17CAttribute_StringPKcE.txt': 'CAttributeIterator_GetTypedAttributeValue<CAttribute_String, char const*>', '__ZTVN22CMvMVictoryMannUpEntry12CMvMLootItemE.txt': 'CMvMVictoryMannUpEntry::CMvMLootItem', '__ZTV21C_INIT_VelocityRandom.txt': 'C_INIT_VelocityRandom', '__ZTV29CEconNotification_HasNewItems.txt': 'CEconNotification_HasNewItems', '__ZTV22CTFQuestCountEvaluator.txt': 'CTFQuestCountEvaluator', '__ZTV54CSchemaAttributeType_DynamicRecipeComponentDefinedItem.txt': 'CSchemaAttributeType_DynamicRecipeComponentDefinedItem', '__ZTV19C_TFShotgun_Revenge.txt': 'C_TFShotgun_Revenge', '__ZTVN4vgui18ScalableImagePanelE.txt': 'vgui::ScalableImagePanel', '__ZTV18C_TFBaseProjectile.txt': 'C_TFBaseProjectile', '__ZTV10TFViewport.txt': 'TFViewport', '__ZTV25CGenericNotificationToast.txt': 'CGenericNotificationToast', '__ZTV39CAchievementTFEngineer_AchieveProgress3.txt': 'CAchievementTFEngineer_AchieveProgress3', '__ZTV12CClientTools.txt': 'CClientTools', '__ZTV37CAchievementTFDemoman_FreezeTauntRump.txt': 'CAchievementTFDemoman_FreezeTauntRump', '__ZTVN5GCSDK12CProtoBufMsgI19CMsgExitMatchmakingEE.txt': 'GCSDK::CProtoBufMsg<CMsgExitMatchmaking>', '__ZTV14CTFMapInfoMenu.txt': 'CTFMapInfoMenu', '__ZTVN5GCSDK12CProtoBufMsgI21CGCMsgTFHelloResponseEE.txt': 'GCSDK::CProtoBufMsg<CGCMsgTFHelloResponse>', '__ZTV15C_ServerRagdoll.txt': 'C_ServerRagdoll', '__ZTVN15CAboveWaterView17CIntersectionViewE.txt': 'CAboveWaterView::CIntersectionView', '__ZTVN27CEconTool_ItemDynamicRecipe34CDynamicRecipeComponentDefinedItemE.txt': 'CEconTool_ItemDynamicRecipe::CDynamicRecipeComponentDefinedItem', '__ZTVN5GCSDK12CProtoBufMsgI31CMsgTFCoaching_LikeCurrentCoachEE.txt': 'GCSDK::CProtoBufMsg<CMsgTFCoaching_LikeCurrentCoach>', '__ZTV20CPerfVisualBenchmark.txt': 'CPerfVisualBenchmark', '__ZTVN5GCSDK22CProtoBufMsgMemoryPoolI36CMsgTFQuickplay_ScoreServersResponseEE.txt': 'GCSDK::CProtoBufMsgMemoryPool<CMsgTFQuickplay_ScoreServersResponse>', '__ZTV27CParticleOperatorDefinitionI23C_OP_RenderSpritesTrailE.txt': 'CParticleOperatorDefinition<C_OP_RenderSpritesTrail>', '__ZTV26CGCMsgMemCachedSet_KeyPair.txt': 'CGCMsgMemCachedSet_KeyPair', '__ZTV25C_TFWeaponBaseGrenadeProj.txt': 'C_TFWeaponBaseGrenadeProj', '__ZTV15C_TestTraceline.txt': 'C_TestTraceline', '__ZTV18CMsgMvMVictoryInfo.txt': 'CMsgMvMVictoryInfo', '__ZTV18CTFGenericBombShim.txt': 'CTFGenericBombShim', '__ZTV46CMsgLookupMultipleAccountNamesResponse_Account.txt': 'CMsgLookupMultipleAccountNamesResponse_Account', '__ZTV37CAchievementTFScout_AssistChargeMedic.txt': 'CAchievementTFScout_AssistChargeMedic', '__ZTV33CAchievementTFHeavy_KillMedicPair.txt': 'CAchievementTFHeavy_KillMedicPair', '__ZTVN8CryptoPP31IteratedHashWithStaticTransformIjNS_10EnumToTypeINS_9ByteOrderELi1EEELj64ELj32ENS_6SHA256ELj32ELb1EEE.txt': 'CryptoPP::IteratedHashWithStaticTransform<unsigned int, CryptoPP::EnumToType<CryptoPP::ByteOrder, 1>, 64u, 32u, CryptoPP::SHA256, 32u, true>', '__ZTV39CAchievementTFEngineer_UpgradeBuildings.txt': 'CAchievementTFEngineer_UpgradeBuildings', '__ZTV37CAchievementTF_KillBalloonicornOwners.txt': 'CAchievementTF_KillBalloonicornOwners', '__ZTV13CScriptObject.txt': 'CScriptObject', '__ZTV10C_TFCannon.txt': 'C_TFCannon', '__ZTV25CGCCoaching_CoachJoinGame.txt': 'CGCCoaching_CoachJoinGame', '__ZTV18C_BreakableSurface.txt': 'C_BreakableSurface', '__ZTV12CGCMsgTFSync.txt': 'CGCMsgTFSync', '__ZTVN8CryptoPP10ASN1ObjectE.txt': 'CryptoPP::ASN1Object', '__ZTVN8CryptoPP10BufferlessINS_22BufferedTransformationEEE.txt': 'CryptoPP::Bufferless<CryptoPP::BufferedTransformation>', '__ZTV21C_INIT_RandomLifeTime.txt': 'C_INIT_RandomLifeTime', '__ZTV12CTFRoundInfo.txt': 'CTFRoundInfo', '__ZTV25CProxyAnimatedWeaponSheen.txt': 'CProxyAnimatedWeaponSheen', '__ZTV18C_TEEffectDispatch.txt': 'C_TEEffectDispatch', '__ZTV26C_INIT_RandomRotationSpeed.txt': 'C_INIT_RandomRotationSpeed', '__ZTV15C_ClientRagdoll.txt': 'C_ClientRagdoll', '__ZTV39CAchievementTFMedic_HealTargetUnderFire.txt': 'CAchievementTFMedic_HealTargetUnderFire', '__ZTV16CModelPanelModel.txt': 'CModelPanelModel', '__ZTV41CAchievementTF_MvM_Maps_Manhattan_Mystery.txt': 'CAchievementTF_MvM_Maps_Manhattan_Mystery', '__ZTV12CTFClassMenu.txt': 'CTFClassMenu', '__ZTV27CParticleOperatorDefinitionI16C_OP_MaxVelocityE.txt': 'CParticleOperatorDefinition<C_OP_MaxVelocity>', '__ZTV15CQuestItemPanel.txt': 'CQuestItemPanel', '__ZTV19CClassFilterTooltip.txt': 'CClassFilterTooltip', '__ZTV6Beam_t.txt': 'Beam_t', '__ZTV34CAchievementTFSnakewater_WinRounds.txt': 'CAchievementTFSnakewater_WinRounds', '__ZTV15MouseOverButtonIN4vgui13EditablePanelEE.txt': 'MouseOverButton<vgui::EditablePanel>', '__ZTV12CHudChatLine.txt': 'CHudChatLine', '__ZTV41CAchievementTFSniper_ClassicRifleGibGrind.txt': 'CAchievementTFSniper_ClassicRifleGibGrind', '__ZTV36CAchievementTFSniper_JarateDominated.txt': 'CAchievementTFSniper_JarateDominated', '__ZTV35CAchievementTFPyro_MultiWeaponKills.txt': 'CAchievementTFPyro_MultiWeaponKills', '__ZTV19CHudMenuSpyDisguise.txt': 'CHudMenuSpyDisguise', '__ZTV34CAchievementTFSniper_JarateAssists.txt': 'CAchievementTFSniper_JarateAssists', '__ZTV23C_INIT_SequenceLifeTime.txt': 'C_INIT_SequenceLifeTime', '__ZTV36CAchievementTFHeavy_ReceiveUberGrind.txt': 'CAchievementTFHeavy_ReceiveUberGrind', '__ZTV22CControlPointIconSwoop.txt': 'CControlPointIconSwoop', '__ZTV36CAchievementTFMedic_RapidUbercharges.txt': 'CAchievementTFMedic_RapidUbercharges', '__ZTV19CHudBaseDeathNotice.txt': 'CHudBaseDeathNotice', '__ZTV39CAchievementTFDemoman_DecapitatePlayers.txt': 'CAchievementTFDemoman_DecapitatePlayers', '__ZTV13CPanelFactoryI13CPDAPanel_Spy20VGuiScreenInitData_tE.txt': 'CPanelFactory<CPDAPanel_Spy, VGuiScreenInitData_t>', '__ZTV23CGCPlayerKilledResponse.txt': 'CGCPlayerKilledResponse', '__ZTV12CImageButton.txt': 'CImageButton', '__ZTV19CTFTrainingComplete.txt': 'CTFTrainingComplete', '__ZTV17CReplayScreenshot.txt': 'CReplayScreenshot', '__ZTV28CMsgTFRequestChatChannelList.txt': 'CMsgTFRequestChatChannelList', '__ZTVN19CAttributeContainer17NetworkVar_m_ItemE.txt': 'CAttributeContainer::NetworkVar_m_Item', '__ZTV12CEffectsList.txt': 'CEffectsList', '__ZTV15CAccumBuffProxy.txt': 'CAccumBuffProxy', '__ZTV15CFXDiscreetLine.txt': 'CFXDiscreetLine', '__ZTV41CAchievementTFHalloweenDoomsdayScoreGoals.txt': 'CAchievementTFHalloweenDoomsdayScoreGoals', '__ZTV15C_WeaponIFMBase.txt': 'C_WeaponIFMBase', '__ZTV23CEntityDataInstantiatorI17physicspushlist_tE.txt': 'CEntityDataInstantiator<physicspushlist_t>', '__ZTV14C_EconWearable.txt': 'C_EconWearable', '__ZTV14C_ReplayCamera.txt': 'C_ReplayCamera', '__ZTV24CCustomTextureImagePanel.txt': 'CCustomTextureImagePanel', '__ZTV24CBaseReplaySerializeable.txt': 'CBaseReplaySerializeable', '__ZTVN8CryptoPP39PKCS1v15_SignatureMessageEncodingMethodE.txt': 'CryptoPP::PKCS1v15_SignatureMessageEncodingMethod', '__ZTV40CAchievementTFDemoman_Kill3WithPipeSetup.txt': 'CAchievementTFDemoman_Kill3WithPipeSetup', '__ZTV26CTFDisconnectConfirmDialog.txt': 'CTFDisconnectConfirmDialog', '__ZTV33CAchievementTFHeavy_RevengeAssist.txt': 'CAchievementTFHeavy_RevengeAssist', '__ZTV16CSnowFallManager.txt': 'CSnowFallManager', '__ZTVN5GCSDK12CProtoBufMsgI21CMsgSOCacheSubscribedEE.txt': 'GCSDK::CProtoBufMsg<CMsgSOCacheSubscribed>', '__ZTV27CParticleOperatorDefinitionI22C_OP_ControlpointLightE.txt': 'CParticleOperatorDefinition<C_OP_ControlpointLight>', '__ZTV43CAchievemeentTFEngineer_DispenserExtinguish.txt': 'CAchievemeentTFEngineer_DispenserExtinguish', '__ZTV30CEntityOriginAlyxMaterialProxy.txt': 'CEntityOriginAlyxMaterialProxy', '__ZTV16C_OP_VectorNoise.txt': 'C_OP_VectorNoise', '__ZTV17CPreviewRotButton.txt': 'CPreviewRotButton', '__ZTV16CNavigationPanel.txt': 'CNavigationPanel', '__ZTV20C_INIT_CreateOnModel.txt': 'C_INIT_CreateOnModel', '__ZTV23CMsgMatchSearchCriteria.txt': 'CMsgMatchSearchCriteria', '__ZTV13CRecipeButton.txt': 'CRecipeButton', '__ZTV19CCharacterInfoPanel.txt': 'CCharacterInfoPanel', '__ZTV45CAchievementTFSoldier_KillTwoDuringRocketJump.txt': 'CAchievementTFSoldier_KillTwoDuringRocketJump', '__ZTV21CSubmitAbuseReportJob.txt': 'CSubmitAbuseReportJob', '__ZTV22C_EnvTonemapController.txt': 'C_EnvTonemapController', '__ZTV23CMsgUpdatePeriodicEvent.txt': 'CMsgUpdatePeriodicEvent', '__ZTV21CTFHudSpectatorExtras.txt': 'CTFHudSpectatorExtras', '__ZTV29CAchievementTFHeavy_BlockCart.txt': 'CAchievementTFHeavy_BlockCart', '__ZTVN12C_BaseEntity22NetworkVar_m_CollisionE.txt': 'C_BaseEntity::NetworkVar_m_Collision', '__ZTV32CAchievementTFScout_FlagCapGrind.txt': 'CAchievementTFScout_FlagCapGrind', '__ZTV28CAchievementTFSpy_ShieldKill.txt': 'CAchievementTFSpy_ShieldKill', '__ZTVN5GCSDK21CProtoBufSharedObjectI24CSOEconGameAccountClientLi7EEE.txt': 'GCSDK::CProtoBufSharedObject<CSOEconGameAccountClient, 7>', '__ZTVN5GCSDK22CSharedObjectTypeCacheE.txt': 'GCSDK::CSharedObjectTypeCache', '__ZTV36CAchievementTFHeavy_BlockInvulnHeavy.txt': 'CAchievementTFHeavy_BlockInvulnHeavy', '__ZTVN4vgui10ClickPanelE.txt': 'vgui::ClickPanel', '__ZTVN5GCSDK6CGCMsgI18MsgGCUnlockCrate_tEE.txt': 'GCSDK::CGCMsg<MsgGCUnlockCrate_t>', '__ZTV12C_TFLunchBox.txt': 'C_TFLunchBox', '__ZTV35CMsgGC_GameServer_AckPolicyResponse.txt': 'CMsgGC_GameServer_AckPolicyResponse', '__ZTV35CAchievementTFPyro_AchieveProgress1.txt': 'CAchievementTFPyro_AchieveProgress1', '__ZTV17C_TEArmorRicochet.txt': 'C_TEArmorRicochet', '__ZTV44CAchievementTFSpy_SpyBackstabEnemySwitchPyro.txt': 'CAchievementTFSpy_SpyBackstabEnemySwitchPyro', '__ZTV13CGameMovement.txt': 'CGameMovement', '__ZTV34CEconNotification_AbuseReportReady.txt': 'CEconNotification_AbuseReportReady', '__ZTV44CAchievementTFSpy_SpySapBuildingBackstabEngy.txt': 'CAchievementTFSpy_SpySapBuildingBackstabEngy', '__ZTV17CDateBasedHoliday.txt': 'CDateBasedHoliday', '__ZTV12C_TEShowLine.txt': 'C_TEShowLine', '__ZTV49CAchievementTFScout_BackscatterKillHeavyMedicPair.txt': 'CAchievementTFScout_BackscatterKillHeavyMedicPair', '__ZTV32CAchievementTFPyro_KillWithTaunt.txt': 'CAchievementTFPyro_KillWithTaunt', '__ZTVN5GCSDK22CProtoBufMsgMemoryPoolI27CMsgAdjustItemEquippedStateEE.txt': 'GCSDK::CProtoBufMsgMemoryPool<CMsgAdjustItemEquippedState>', '__ZTVN11CLobbyPanel13ChallengeListE.txt': 'CLobbyPanel::ChallengeList', '__ZTV9CCallbackI17CTFGCClientSystem17LobbyDataUpdate_tLb0EE.txt': 'CCallback<CTFGCClientSystem, LobbyDataUpdate_t, false>', '__ZTV20CProxyWheatlyEyeGlow.txt': 'CProxyWheatlyEyeGlow', '__ZTV20CTFHudFlagObjectives.txt': 'CTFHudFlagObjectives', '__ZTVN5GCSDK12CProtoBufMsgI30CMsgGC_GameServer_ListResponseEE.txt': 'GCSDK::CProtoBufMsg<CMsgGC_GameServer_ListResponse>', '__ZTV24CTFProjectile_EnergyRing.txt': 'CTFProjectile_EnergyRing', '__ZTV12C_TEBaseBeam.txt': 'C_TEBaseBeam', '__ZTV22C_INIT_InheritVelocity.txt': 'C_INIT_InheritVelocity', '__ZTV36CCountUserGeneratedAttributeIterator.txt': 'CCountUserGeneratedAttributeIterator', '__ZTVN29PrecachePostProcessingEffects20ClientEffectRegisterE.txt': 'PrecachePostProcessingEffects::ClientEffectRegister', '__ZTVN5GCSDK22CProtoBufMsgMemoryPoolI16CMsgAcceptInviteEE.txt': 'GCSDK::CProtoBufMsgMemoryPool<CMsgAcceptInvite>', '__ZTV14CEconClaimCode.txt': 'CEconClaimCode', '__ZTV23CClientScoreBoardDialog.txt': 'CClientScoreBoardDialog', '__ZTV37CAchievementTFSoldier_KillDefenseless.txt': 'CAchievementTFSoldier_KillDefenseless', '__ZTV12CLCDItemIcon.txt': 'CLCDItemIcon', '__ZTV16CClientThinkList.txt': 'CClientThinkList', '__ZTV10CNoHoliday.txt': 'CNoHoliday', '__ZTV14CEconStyleInfo.txt': 'CEconStyleInfo', '__ZTV43CAchievementTF_MvM_PickupMoneyAboutToExpire.txt': 'CAchievementTF_MvM_PickupMoneyAboutToExpire', '__ZTV15C_WeaponMedigun.txt': 'C_WeaponMedigun', '__ZTV26CReplayBrowserThumbnailRow.txt': 'CReplayBrowserThumbnailRow', '__ZTV14CQuestLogPanel.txt': 'CQuestLogPanel', '__ZTV14CRecLightPanel.txt': 'CRecLightPanel', '__ZTVN23PrecacheSmokeFogOverlay20ClientEffectRegisterE.txt': 'PrecacheSmokeFogOverlay::ClientEffectRegister', '__ZTV12CHudTeamGoal.txt': 'CHudTeamGoal', '__ZTVN4vgui10CheckImageE.txt': 'vgui::CheckImage', '__ZTV11BitmapImage.txt': 'BitmapImage', '__ZTV37CAchievementTFFoundry_PlayGameFriends.txt': 'CAchievementTFFoundry_PlayGameFriends', '__ZTV11CHudVehicle.txt': 'CHudVehicle', '__ZTV34CAchievementTFSniper_KillWhileDead.txt': 'CAchievementTFSniper_KillWhileDead', '__ZTVN5GCSDK22CGCSOUpdateMultipleJobE.txt': 'GCSDK::CGCSOUpdateMultipleJob', '__ZTV40CMsgGC_GameServer_CreateIdentityResponse.txt': 'CMsgGC_GameServer_CreateIdentityResponse', '__ZTV37CGCLookupMultipleAccountsNameResponse.txt': 'CGCLookupMultipleAccountsNameResponse', '__ZTV35CMsgGCStorePurchaseFinalizeResponse.txt': 'CMsgGCStorePurchaseFinalizeResponse', '__ZTV21CRagdollLRURetirement.txt': 'CRagdollLRURetirement', '__ZTV28CAchievementTFScout_MaxStuns.txt': 'CAchievementTFScout_MaxStuns', '__ZTV19CCombatCharVisCache.txt': 'CCombatCharVisCache', '__ZTV10C_Merasmus.txt': 'C_Merasmus', '__ZTV14CCraftingPanel.txt': 'CCraftingPanel', '__ZTVN4vgui4MenuE.txt': 'vgui::Menu', '__ZTV26CHudItemEffectMeter_WeaponI13C_TFDRGPomsonE.txt': 'CHudItemEffectMeter_Weapon<C_TFDRGPomson>', '__ZTV15CTFStreakNotice.txt': 'CTFStreakNotice', '__ZTVN8CryptoPP7Integer20RandomNumberNotFoundE.txt': 'CryptoPP::Integer::RandomNumberNotFound', '__ZTV38CMsgLookupMultipleAccountNamesResponse.txt': 'CMsgLookupMultipleAccountNamesResponse', '__ZTV38CAchievementTFEngineer_RepairTeamGrind.txt': 'CAchievementTFEngineer_RepairTeamGrind', '__ZTV14CTFProgressBar.txt': 'CTFProgressBar', '__ZTV11CCallResultI15CPublishedFiles24SteamUGCQueryCompleted_tE.txt': 'CCallResult<CPublishedFiles, SteamUGCQueryCompleted_t>', '__ZTV18CRagdollEnumerator.txt': 'CRagdollEnumerator', '__ZTV12CParticleMgr.txt': 'CParticleMgr', '__ZTV13CCallbackImplILi12EE.txt': 'CCallbackImpl<12>', '__ZTV17CEconTool_DescTag.txt': 'CEconTool_DescTag', '__ZTVN5GCSDK6CGCMsgI15MsgGCNameItem_tEE.txt': 'GCSDK::CGCMsg<MsgGCNameItem_t>', '__ZTV13CTestItemRoot.txt': 'CTestItemRoot', '__ZTVN5GCSDK12CProtoBufMsgI20CMsgApplyStrangePartEE.txt': 'GCSDK::CProtoBufMsg<CMsgApplyStrangePart>', '__ZTVN8CryptoPP12ClassNullRNGE.txt': 'CryptoPP::ClassNullRNG', '__ZTV23CGCClientMvMVictoryInfo.txt': 'CGCClientMvMVictoryInfo', '__ZTV35CAchievementTFMedic_AssistVsNemeses.txt': 'CAchievementTFMedic_AssistVsNemeses', '__ZTV15CSmallTextEntry.txt': 'CSmallTextEntry', '__ZTV26CMvMVictoryMannUpPlayerTab.txt': 'CMvMVictoryMannUpPlayerTab', '__ZTV17fogplayerparams_t.txt': 'fogplayerparams_t', '__ZTV18C_INIT_RemapScalar.txt': 'C_INIT_RemapScalar', '__ZTVN5GCSDK12CProtoBufMsgI39CMsgGCItemPreviewItemBoughtNotificationEE.txt': 'GCSDK::CProtoBufMsg<CMsgGCItemPreviewItemBoughtNotification>', '__ZTVN5GCSDK22CProtoBufMsgMemoryPoolI24CMsgSelectPresetForClassEE.txt': 'GCSDK::CProtoBufMsgMemoryPool<CMsgSelectPresetForClass>', '__ZTV31CAttributeIterator_HasAttribute.txt': 'CAttributeIterator_HasAttribute', '__ZTV21C_ObjectCartDispenser.txt': 'C_ObjectCartDispenser', '__ZTV19CGCReplicateConVars.txt': 'CGCReplicateConVars', '__ZTV22CGCEventEnableResponse.txt': 'CGCEventEnableResponse', '__ZTV19CEconTool_DuckToken.txt': 'CEconTool_DuckToken', '__ZTVN5GCSDK9CGCClientE.txt': 'GCSDK::CGCClient', '__ZTV39CAchievementTFEngineer_HelpManualSentry.txt': 'CAchievementTFEngineer_HelpManualSentry', '__ZTVN4vgui12IClientPanelE.txt': 'vgui::IClientPanel', '__ZTV11C_Func_Dust.txt': 'C_Func_Dust', '__ZTVN5GCSDK22CProtoBufMsgMemoryPoolI24CMsgTFCoaching_FindCoachEE.txt': 'GCSDK::CProtoBufMsgMemoryPool<CMsgTFCoaching_FindCoach>', '__ZTV14CHudTournament.txt': 'CHudTournament', '__ZTV13CPanelFactoryI16CVGuiScreenPanel20VGuiScreenInitData_tE.txt': 'CPanelFactory<CVGuiScreenPanel, VGuiScreenInitData_t>', '__ZTVN5GCSDK12CProtoBufMsgI24CMsgSelectPresetForClassEE.txt': 'GCSDK::CProtoBufMsg<CMsgSelectPresetForClass>', '__ZTVN10C_TFPlayer29NetworkVar_m_AttributeManagerE.txt': 'C_TFPlayer::NetworkVar_m_AttributeManager', '__ZTV32CAchievementTF_MvM_UseAmmoBottle.txt': 'CAchievementTF_MvM_UseAmmoBottle', '__ZTVN5GCSDK12CProtoBufMsgI25CMsgGCStorePurchaseCancelEE.txt': 'GCSDK::CProtoBufMsg<CMsgGCStorePurchaseCancel>', '__ZTV33CEconTool_AccountUpgradeToPremium.txt': 'CEconTool_AccountUpgradeToPremium', '__ZTV21CQuestThemeDefinition.txt': 'CQuestThemeDefinition', '__ZTV36CMsgReplaySubmitContestEntryResponse.txt': 'CMsgReplaySubmitContestEntryResponse', '__ZTV20CGCPaintItemResponse.txt': 'CGCPaintItemResponse', '__ZTV16CSOEconClaimCode.txt': 'CSOEconClaimCode', '__ZTV33CAchievementTFMedic_ChargeBlocker.txt': 'CAchievementTFMedic_ChargeBlocker', '__ZTV33CAchievementTFPlayGameFriendsOnly.txt': 'CAchievementTFPlayGameFriendsOnly', '__ZTV13C_TFViewModel.txt': 'C_TFViewModel', '__ZTV18CCartViewItemEntry.txt': 'CCartViewItemEntry', '__ZTV31CTFQuestCustomDamageRestriction.txt': 'CTFQuestCustomDamageRestriction', '__ZTV22CGCMOTDRequestResponse.txt': 'CGCMOTDRequestResponse', '__ZTV14CTFHealthPanel.txt': 'CTFHealthPanel', '__ZTV16CSOTFPartyMember.txt': 'CSOTFPartyMember', '__ZTV18C_TEProjectedDecal.txt': 'C_TEProjectedDecal', '__ZTV24CMsgSetItemSlotAttribute.txt': 'CMsgSetItemSlotAttribute', '__ZTV36CAchievementTFMedic_KillWhileCharged.txt': 'CAchievementTFMedic_KillWhileCharged', '__ZTV15CCollisionEvent.txt': 'CCollisionEvent', '__ZTV30CAchievementTFPlayGameEveryMap.txt': 'CAchievementTFPlayGameEveryMap', '__ZTVN5GCSDK12CProtoBufMsgI26CMsgGCShuffleCrateContentsEE.txt': 'GCSDK::CProtoBufMsg<CMsgGCShuffleCrateContents>', '__ZTV17CTargetOnlyFilter.txt': 'CTargetOnlyFilter', '__ZTV36CMsgAMGetUserGameStatsResponse_Stats.txt': 'CMsgAMGetUserGameStatsResponse_Stats', '__ZTV16CInputProxyPanel.txt': 'CInputProxyPanel', '__ZTV27CMsgGCQuestComplete_Request.txt': 'CMsgGCQuestComplete_Request', '__ZTV17C_OP_PositionLock.txt': 'C_OP_PositionLock', '__ZTV27CParticleOperatorDefinitionI19C_INIT_PositionWarpE.txt': 'CParticleOperatorDefinition<C_INIT_PositionWarp>', '__ZTV10CPASFilter.txt': 'CPASFilter', '__ZTV36CAchievementTFEngineer_TeleportGrind.txt': 'CAchievementTFEngineer_TeleportGrind', '__ZTV25CInterpolatedVarArrayBaseIfLb1EE.txt': 'CInterpolatedVarArrayBase<float, true>', '__ZTV14CNetGraphPanel.txt': 'CNetGraphPanel', '__ZTVN5GCSDK21CProtoBufSharedObjectI15CSOTFPlayerInfoLi2EEE.txt': 'GCSDK::CProtoBufSharedObject<CSOTFPlayerInfo, 2>', '__ZTV34DelayedSchemaData_HTTPResponseData.txt': 'DelayedSchemaData_HTTPResponseData', '__ZTV15CHudScopeCharge.txt': 'CHudScopeCharge', '__ZTV16CItemPickupPanel.txt': 'CItemPickupPanel', '__ZTV15CMsgConVarValue.txt': 'CMsgConVarValue', '__ZTV26CDispenserControlPanel_Red.txt': 'CDispenserControlPanel_Red', '__ZTVN4vgui10RadioImageE.txt': 'vgui::RadioImage', '__ZTV24CTFConfirmTrainingDialog.txt': 'CTFConfirmTrainingDialog', '__ZTV33CAchievementTFDemoman_FreezeTaunt.txt': 'CAchievementTFDemoman_FreezeTaunt', '__ZTV34CAchievementTFPyro_BurnTauntingSpy.txt': 'CAchievementTFPyro_BurnTauntingSpy', '__ZTV39CAchievementTFMedic_ExtinguishTeammates.txt': 'CAchievementTFMedic_ExtinguishTeammates', '__ZTVN5GCSDK22CProtoBufMsgMemoryPoolI24CMsgSetItemSlotAttributeEE.txt': 'GCSDK::CProtoBufMsgMemoryPool<CMsgSetItemSlotAttribute>', '__ZTV13CTFArrowPanel.txt': 'CTFArrowPanel', '__ZTVN17C_TFDroppedWeapon17NetworkVar_m_ItemE.txt': 'C_TFDroppedWeapon::NetworkVar_m_Item', '__ZTV17CChoreoStringPool.txt': 'CChoreoStringPool', '__ZTV14CSmokeParticle.txt': 'CSmokeParticle', '__ZTV41CAchievementTFSniper_SniperRifleNoMissing.txt': 'CAchievementTFSniper_SniperRifleNoMissing', '__ZTV36CAchievementTFMedic_AchieveProgress3.txt': 'CAchievementTFMedic_AchieveProgress3', '__ZTVN5GCSDK12CProtoBufMsgI36CMsgTFQuickplay_ScoreServersResponseEE.txt': 'GCSDK::CProtoBufMsg<CMsgTFQuickplay_ScoreServersResponse>', '__ZTVN5GCSDK12CProtoBufMsgI16CMsgAcceptInviteEE.txt': 'GCSDK::CProtoBufMsg<CMsgAcceptInvite>', '__ZTV29CMsgGCTFSpecificItemBroadcast.txt': 'CMsgGCTFSpecificItemBroadcast', '__ZTV20C_OP_RemapCPtoScalar.txt': 'C_OP_RemapCPtoScalar', '__ZTVN6google8protobuf24EnumValueDescriptorProtoE.txt': 'google::protobuf::EnumValueDescriptorProto', '__ZTV30CTraceFilterSkipNPCsAndPlayers.txt': 'CTraceFilterSkipNPCsAndPlayers', '__ZTV11IGameSystem.txt': 'IGameSystem', '__ZTV38CAchievementTFSpy_KillBackScatterScout.txt': 'CAchievementTFSpy_KillBackScatterScout', '__ZTVN5GCSDK22CProtoBufMsgMemoryPoolI33CMsgTFCoaching_RemoveCurrentCoachEE.txt': 'GCSDK::CProtoBufMsgMemoryPool<CMsgTFCoaching_RemoveCurrentCoach>', '__ZTV35CAchievementTFPyro_BurnFlagCarriers.txt': 'CAchievementTFPyro_BurnFlagCarriers', '__ZTV13CTFStorePage1.txt': 'CTFStorePage1', '__ZTV47CAchievementTFEngineer_ManualSentryAbsorbDamage.txt': 'CAchievementTFEngineer_ManualSentryAbsorbDamage', '__ZTV31CAchievementTFSpy_KillMedicPair.txt': 'CAchievementTFSpy_KillMedicPair', '__ZTVN21PrecacheEffectImpacts20ClientEffectRegisterE.txt': 'PrecacheEffectImpacts::ClientEffectRegister', '__ZTV33CAchievementTFScout_LifetimeKills.txt': 'CAchievementTFScout_LifetimeKills', '__ZTVN5GCSDK22CProtoBufMsgMemoryPoolI31CMsgGCClientDisplayNotificationEE.txt': 'GCSDK::CProtoBufMsgMemoryPool<CMsgGCClientDisplayNotification>', '__ZTV13CCallbackImplILi264EE.txt': 'CCallbackImpl<264>', '__ZTV32C_TFProjectile_SpellMeteorShower.txt': 'C_TFProjectile_SpellMeteorShower', '__ZTV10C_PropJeep.txt': 'C_PropJeep', '__ZTV12C_TFBat_Wood.txt': 'C_TFBat_Wood', '__ZTV22C_OP_InterpolateRadius.txt': 'C_OP_InterpolateRadius', '__ZTVN4vgui7MenuBarE.txt': 'vgui::MenuBar', '__ZTV13CAccountPanel.txt': 'CAccountPanel', '__ZTV11CTFWinPanel.txt': 'CTFWinPanel', '__ZTV34CBuildingStatusItem_TeleporterExit.txt': 'CBuildingStatusItem_TeleporterExit', '__ZTV9HTMLPopup.txt': 'HTMLPopup', '__ZTVN5GCSDK22CProtoBufMsgMemoryPoolI19CMsgSystemBroadcastEE.txt': 'GCSDK::CProtoBufMsgMemoryPool<CMsgSystemBroadcast>', '__ZTV15CAutoGameSystem.txt': 'CAutoGameSystem', '__ZTV29CMsgGCQuestObjective_Progress.txt': 'CMsgGCQuestObjective_Progress', '__ZTV15C_TEMetalSparks.txt': 'C_TEMetalSparks', '__ZTV24C_NextBotCombatCharacter.txt': 'C_NextBotCombatCharacter', '__ZTV14CTFPartyInvite.txt': 'CTFPartyInvite', '__ZTVN8CryptoPP9ExceptionE.txt': 'CryptoPP::Exception', '__ZTV16CPlayerViewProxy.txt': 'CPlayerViewProxy', '__ZTV34CMsgMatchmakingSearchCountResponse.txt': 'CMsgMatchmakingSearchCountResponse', '__ZTV36CAchievementTFScout_CaptureLastPoint.txt': 'CAchievementTFScout_CaptureLastPoint', '__ZTV21ITargetIDProvidesHint.txt': 'ITargetIDProvidesHint', '__ZTV17CMsgGCCollectItem.txt': 'CMsgGCCollectItem', '__ZTV17CBaseDetailsPanel.txt': 'CBaseDetailsPanel', '__ZTVN4vgui16TreeViewSubPanelE.txt': 'vgui::TreeViewSubPanel', '__ZTV19CTFGiftNotification.txt': 'CTFGiftNotification', '__ZTV29CReplayPerformanceEditorPanel.txt': 'CReplayPerformanceEditorPanel', '__ZTVN5GCSDK22CProtoBufMsgMemoryPoolI39CMsgGC_Client_UseServerModificationItemEE.txt': 'GCSDK::CProtoBufMsgMemoryPool<CMsgGC_Client_UseServerModificationItem>', '__ZTV19CCameraOptionsPanel.txt': 'CCameraOptionsPanel', '__ZTV21C_TFProjectile_Rocket.txt': 'C_TFProjectile_Rocket', '__ZTVN5GCSDK22CProtoBufMsgMemoryPoolI15CMsgConVarValueEE.txt': 'GCSDK::CProtoBufMsgMemoryPool<CMsgConVarValue>', '__ZTV22CTimeScaleOptionsPanel.txt': 'CTimeScaleOptionsPanel', '__ZTV23C_PasstimePlayerReticle.txt': 'C_PasstimePlayerReticle', '__ZTVN5GCSDK12CProtoBufMsgI39CMsgGC_GameServer_ResetIdentityResponseEE.txt': 'GCSDK::CProtoBufMsg<CMsgGC_GameServer_ResetIdentityResponse>', '__ZTV14CTFFreezePanel.txt': 'CTFFreezePanel', '__ZTVN5GCSDK15CGCSODestroyJobE.txt': 'GCSDK::CGCSODestroyJob', '__ZTV19CMsgRecipeComponent.txt': 'CMsgRecipeComponent', '__ZTV34CMsgGC_PickupItemEligibility_Query.txt': 'CMsgGC_PickupItemEligibility_Query', '__ZTVN5GCSDK22CProtoBufMsgMemoryPoolI40CMsgGC_GameServer_CreateIdentityResponseEE.txt': 'GCSDK::CProtoBufMsgMemoryPool<CMsgGC_GameServer_CreateIdentityResponse>', '__ZTV24CReplayConfirmQuitDialog.txt': 'CReplayConfirmQuitDialog', '__ZTV12CItemAdPanel.txt': 'CItemAdPanel', '__ZTV22CTraceFilterSimpleList.txt': 'CTraceFilterSimpleList', '__ZTV27CParticleOperatorDefinitionI25C_OP_WorldTraceConstraintE.txt': 'CParticleOperatorDefinition<C_OP_WorldTraceConstraint>', '__ZTVN4vgui14PropertyDialogE.txt': 'vgui::PropertyDialog', '__ZTVN8CryptoPP18PK_SignatureSchemeE.txt': 'CryptoPP::PK_SignatureScheme', '__ZTV22CPhysObjSaveRestoreOps.txt': 'CPhysObjSaveRestoreOps', '__ZTV16C_OP_FadeAndKill.txt': 'C_OP_FadeAndKill', '__ZTV14CBackpackPanel.txt': 'CBackpackPanel', '__ZTV17C_OP_DistanceToCP.txt': 'C_OP_DistanceToCP', '__ZTV27CMsgReplayUploadedToYouTube.txt': 'CMsgReplayUploadedToYouTube', '__ZTVN5GCSDK22CProtoBufMsgMemoryPoolI29CMsgGCTFSpecificItemBroadcastEE.txt': 'GCSDK::CProtoBufMsgMemoryPool<CMsgGCTFSpecificItemBroadcast>', '__ZTVN6google8protobuf2io18StringOutputStreamE.txt': 'google::protobuf::io::StringOutputStream', '__ZTV23CQuestNotificationPanel.txt': 'CQuestNotificationPanel', '__ZTV19CIconRenderReceiver.txt': 'CIconRenderReceiver', '__ZTV15CParticleEffect.txt': 'CParticleEffect', '__ZTV11CVTFTexture.txt': 'CVTFTexture', '__ZTV36CAchievementTF_MvM_MedicShareBottles.txt': 'CAchievementTF_MvM_MedicShareBottles', '__ZTV17CTFClassTipsPanel.txt': 'CTFClassTipsPanel', '__ZTV24CBoundedCvar_InterpRatio.txt': 'CBoundedCvar_InterpRatio', '__ZTV11C_OP_FadeIn.txt': 'C_OP_FadeIn', '__ZTVN5GCSDK12CProtoBufMsgI20CMsgUpdateItemSchemaEE.txt': 'GCSDK::CProtoBufMsg<CMsgUpdateItemSchema>', '__ZTV17C_TFWeaponPDA_Spy.txt': 'C_TFWeaponPDA_Spy', '__ZTV22CItemModelPanelToolTip.txt': 'CItemModelPanelToolTip', '__ZTV40CAchievementTFDemoman_DestroyStickyBombs.txt': 'CAchievementTFDemoman_DestroyStickyBombs', '__ZTV21C_FireFromAboveSprite.txt': 'C_FireFromAboveSprite', '__ZTV20C_TFSniperRifleDecap.txt': 'C_TFSniperRifleDecap', '__ZTVN5GCSDK22CProtoBufMsgMemoryPoolI31CMsgGC_GameServer_ResetIdentityEE.txt': 'GCSDK::CProtoBufMsgMemoryPool<CMsgGC_GameServer_ResetIdentity>', '__ZTV17C_WaterLODControl.txt': 'C_WaterLODControl', '__ZTV23CSteamWorkshopItemPanel.txt': 'CSteamWorkshopItemPanel', '__ZTV28C_OP_ConstrainDistanceToPath.txt': 'C_OP_ConstrainDistanceToPath', '__ZTV10CSineProxy.txt': 'CSineProxy', '__ZTV24CDucksLeaderboardManager.txt': 'CDucksLeaderboardManager', '__ZTVN8CryptoPP18ASN1CryptoMaterialINS_9PublicKeyEEE.txt': 'CryptoPP::ASN1CryptoMaterial<CryptoPP::PublicKey>', '__ZTV33CAchievementTFHalloweenLootIsland.txt': 'CAchievementTFHalloweenLootIsland', '__ZTVN10__cxxabiv117__class_type_infoE.txt': '__cxxabiv1::__class_type_info', '__ZTV16C_TeamRoundTimer.txt': 'C_TeamRoundTimer', '__ZTV17CMsgInviteToParty.txt': 'CMsgInviteToParty', '__ZTV28CMannVsMachineUpgradeManager.txt': 'CMannVsMachineUpgradeManager', '__ZTV43CAchievementTFDemoman_MeleeKillWhileJumping.txt': 'CAchievementTFDemoman_MeleeKillWhileJumping', '__ZTV23C_MaterialModifyControl.txt': 'C_MaterialModifyControl', '__ZTV13CTFImagePanel.txt': 'CTFImagePanel', '__ZTV21CColorVisualizerPanel.txt': 'CColorVisualizerPanel', '__ZTV34CSelectStrangePartToRestrictDialog.txt': 'CSelectStrangePartToRestrictDialog', '__ZTV21CStorePreviewItemIcon.txt': 'CStorePreviewItemIcon', '__ZTV18CTFStorePage_Maps2.txt': 'CTFStorePage_Maps2', '__ZTV21CInterpolatedVarArrayIfLi96EE.txt': 'CInterpolatedVarArray<float, 96>', '__ZTV23CBaseToggleTextureProxy.txt': 'CBaseToggleTextureProxy', '__ZTV36CAchievementTFDemoman_KillXDefending.txt': 'CAchievementTFDemoman_KillXDefending', '__ZTV28CMouseMessageForwardingPanel.txt': 'CMouseMessageForwardingPanel', '__ZTV34CAchievementTFDoomsday_SoloCapture.txt': 'CAchievementTFDoomsday_SoloCapture', '__ZTV9CCallbackI15CAchievementMgr17UserStatsStored_tLb0EE.txt': 'CCallback<CAchievementMgr, UserStatsStored_t, false>', '__ZTV36CAchievementTFSpy_SpyAmbassadorGrind.txt': 'CAchievementTFSpy_SpyAmbassadorGrind', '__ZTV18CScoreAccountPanel.txt': 'CScoreAccountPanel', '__ZTV21CTFAbuseReportManager.txt': 'CTFAbuseReportManager', '__ZTV30CAchievementTFGetMultipleKills.txt': 'CAchievementTFGetMultipleKills', '__ZTV16CStorePricePanel.txt': 'CStorePricePanel', '__ZTV29CGCStorePurchaseInit_LineItem.txt': 'CGCStorePurchaseInit_LineItem', '__ZTV15C_TEFireBullets.txt': 'C_TEFireBullets', '__ZTV18C_TFGameRulesProxy.txt': 'C_TFGameRulesProxy', '__ZTV15CUnderWaterView.txt': 'CUnderWaterView', '__ZTV28CMsgReplaySubmitContestEntry.txt': 'CMsgReplaySubmitContestEntry', '__ZTV16CViewRenderBeams.txt': 'CViewRenderBeams', '__ZTV13CBasePresence.txt': 'CBasePresence', '__ZTV23CEmbeddedItemModelPanel.txt': 'CEmbeddedItemModelPanel', '__ZTV40CMsgIncrementKillCountAttribute_Multiple.txt': 'CMsgIncrementKillCountAttribute_Multiple', '__ZTV32CTFQuestPlayerIsOwnerRestriction.txt': 'CTFQuestPlayerIsOwnerRestriction', '__ZTV9CCallbackIN4vgui4HTMLE16HTML_NewWindow_tLb0EE.txt': 'CCallback<vgui::HTML, HTML_NewWindow_t, false>', '__ZTV19CProxyItemTintColor.txt': 'CProxyItemTintColor', '__ZTV20CMsgApplyUpgradeCard.txt': 'CMsgApplyUpgradeCard', '__ZTV19C_TFGrenadeLauncher.txt': 'C_TFGrenadeLauncher', '__ZTV9CCallbackIN4vgui4HTMLE16HTML_JSConfirm_tLb0EE.txt': 'CCallback<vgui::HTML, HTML_JSConfirm_t, false>', '__ZTV16CTFArenaWinPanel.txt': 'CTFArenaWinPanel', '__ZTV29CMsgApplyStrangeCountTransfer.txt': 'CMsgApplyStrangeCountTransfer', '__ZTV18CTimeMaterialProxy.txt': 'CTimeMaterialProxy', '__ZTV37CAchievementTF_MvM_DestroyTankQuickly.txt': 'CAchievementTF_MvM_DestroyTankQuickly', '__ZTV22CEconGameAccountClient.txt': 'CEconGameAccountClient', '__ZTV36CAchievementTFHalloweenBossKillMelee.txt': 'CAchievementTFHalloweenBossKillMelee', '__ZTVN5GCSDK12CProtoBufMsgI29CMsgGCTFSpecificItemBroadcastEE.txt': 'GCSDK::CProtoBufMsg<CMsgGCTFSpecificItemBroadcast>', '__ZTV26CMsgGC_Match_Result_Player.txt': 'CMsgGC_Match_Result_Player', '__ZTV39CAchievementTFSoldier_BounceThenShotgun.txt': 'CAchievementTFSoldier_BounceThenShotgun', '__ZTVN17C_BonusRoundLogic17NetworkVar_m_ItemE.txt': 'C_BonusRoundLogic::NetworkVar_m_Item', '__ZTV20CEconTool_Festivizer.txt': 'CEconTool_Festivizer', '__ZTV27CParticleOperatorDefinitionI21C_INIT_RandomRotationE.txt': 'CParticleOperatorDefinition<C_INIT_RandomRotation>', '__ZTVN5GCSDK12CProtoBufMsgI43CMsgGC_Client2GCEconPreviewDataBlockRequestEE.txt': 'GCSDK::CProtoBufMsg<CMsgGC_Client2GCEconPreviewDataBlockRequest>', '__ZTV20CGCGiftGivenResponse.txt': 'CGCGiftGivenResponse', '__ZTV27CRagdollExplosionEnumerator.txt': 'CRagdollExplosionEnumerator', '__ZTVN5GCSDK6CGCMsgI27MsgGCServerBrowser_Server_tEE.txt': 'GCSDK::CGCMsg<MsgGCServerBrowser_Server_t>', '__ZTV31CAchievementTFTaunt_RPSScissors.txt': 'CAchievementTFTaunt_RPSScissors', '__ZTV25CReplayPerformanceSaveDlg.txt': 'CReplayPerformanceSaveDlg', '__ZTV27CAbuseReportScreenShotPanel.txt': 'CAbuseReportScreenShotPanel', '__ZTV36CGCItemPreviewItemBoughtNotification.txt': 'CGCItemPreviewItemBoughtNotification', '__ZTV15CCallbackManualI28CSteamWorksGameStatsUploader24GameStatsSessionClosed_tLb0EE.txt': 'CCallbackManual<CSteamWorksGameStatsUploader, GameStatsSessionClosed_t, false>', '__ZTV41CAchievementTFGetConsecutiveKillsNoDeaths.txt': 'CAchievementTFGetConsecutiveKillsNoDeaths', '__ZTV20CLobbyContainerFrame.txt': 'CLobbyContainerFrame', '__ZTVN12C_BaseEntity22NetworkVar_m_ParticlesE.txt': 'C_BaseEntity::NetworkVar_m_Particles', '__ZTV39CAchievementTFSpy_SpyBackstabQuickKills.txt': 'CAchievementTFSpy_SpyBackstabQuickKills', '__ZTV25CInterpolatedVarArrayBaseI16C_AnimationLayerLb0EE.txt': 'CInterpolatedVarArrayBase<C_AnimationLayer, false>', '__ZTV11CViewRender.txt': 'CViewRender', '__ZTV34CAchievementTF_MvM_DestroyTwoTanks.txt': 'CAchievementTF_MvM_DestroyTwoTanks', '__ZTV22CReplayBrowserBasePage.txt': 'CReplayBrowserBasePage', '__ZTV24CControlPointProgressBar.txt': 'CControlPointProgressBar', '__ZTVN8CryptoPP4SinkE.txt': 'CryptoPP::Sink', '__ZTV29CMsgGCHAccountVacStatusChange.txt': 'CMsgGCHAccountVacStatusChange', '__ZTV24CCharInfoLoadoutSubPanel.txt': 'CCharInfoLoadoutSubPanel', '__ZTV22CMsgGCClientMarketData.txt': 'CMsgGCClientMarketData', '__ZTV38CGCSystemMsg_GetPurchaseTrust_Response.txt': 'CGCSystemMsg_GetPurchaseTrust_Response', '__ZTV27CParticleOperatorDefinitionI27C_INIT_LifespanFromVelocityE.txt': 'CParticleOperatorDefinition<C_INIT_LifespanFromVelocity>', '__ZTV21CTFPlayerClassDataMgr.txt': 'CTFPlayerClassDataMgr', '__ZTVN12C_BasePlayer18NetworkVar_m_LocalE.txt': 'C_BasePlayer::NetworkVar_m_Local', '__ZTV47CAchievementTFSoldier_KillAirborneWithDirectHit.txt': 'CAchievementTFSoldier_KillAirborneWithDirectHit', '__ZTV29C_TFWeaponBaseMerasmusGrenade.txt': 'C_TFWeaponBaseMerasmusGrenade', '__ZTV13CCallbackImplILi1EE.txt': 'CCallbackImpl<1>', '__ZTVN5GCSDK6CGCMsgI19MsgGCNameBaseItem_tEE.txt': 'GCSDK::CGCMsg<MsgGCNameBaseItem_t>', '__ZTV25CConCommandMemberAccessorI12CTFClassMenuE.txt': 'CConCommandMemberAccessor<CTFClassMenu>', '__ZTV27CAchievementTFPyro_DoubleKO.txt': 'CAchievementTFPyro_DoubleKO', '__ZTV36CAchievementTFHeavy_KillFlagCarriers.txt': 'CAchievementTFHeavy_KillFlagCarriers', '__ZTV49CMsgGC_GameServer_ListResponse_GameServerIdentity.txt': 'CMsgGC_GameServer_ListResponse_GameServerIdentity', '__ZTV34CGCClientRequestMarketDataResponse.txt': 'CGCClientRequestMarketDataResponse', '__ZTV44CAchievementTFDemoman_ChargeKillChargingDemo.txt': 'CAchievementTFDemoman_ChargeKillChargingDemo', '__ZTV13CRecordsPanel.txt': 'CRecordsPanel', '__ZTV27C_TFProjectile_SpellPumpkin.txt': 'C_TFProjectile_SpellPumpkin', '__ZTVN5GCSDK12CProtoBufMsgI17CMsgClientGoodbyeEE.txt': 'GCSDK::CProtoBufMsg<CMsgClientGoodbye>', '__ZTV37CGC_GameServer_CreateIdentityResponse.txt': 'CGC_GameServer_CreateIdentityResponse', '__ZTVN5GCSDK6CGCMsgI35MsgGCTrading_InitiateTradeRequest_tEE.txt': 'GCSDK::CGCMsg<MsgGCTrading_InitiateTradeRequest_t>', '__ZTV29CAchievementTFTaunt_CongaKill.txt': 'CAchievementTFTaunt_CongaKill', '__ZTVN5GCSDK12CProtoBufMsgI35CMsgGCStorePurchaseFinalizeResponseEE.txt': 'GCSDK::CProtoBufMsg<CMsgGCStorePurchaseFinalizeResponse>', '__ZTV27CParticleOperatorDefinitionI12C_OP_FadeOutE.txt': 'CParticleOperatorDefinition<C_OP_FadeOut>', '__ZTV11CCallResultI18CFilePublishDialog18CreateItemResult_tE.txt': 'CCallResult<CFilePublishDialog, CreateItemResult_t>', '__ZTV26CSelectPlayerForDuelDialog.txt': 'CSelectPlayerForDuelDialog', '__ZTVN27CEconTool_ItemDynamicRecipe20CBaseRecipeComponentE.txt': 'CEconTool_ItemDynamicRecipe::CBaseRecipeComponent', '__ZTVN5GCSDK6CGCMsgI13MsgGCDelete_tEE.txt': 'GCSDK::CGCMsg<MsgGCDelete_t>', '__ZTV17CMsgServerGoodbye.txt': 'CMsgServerGoodbye', '__ZTV15AshDebrisEffect.txt': 'AshDebrisEffect', '__ZTV26CMsgCraftHalloweenOffering.txt': 'CMsgCraftHalloweenOffering', '__ZTVN5GCSDK22CProtoBufMsgMemoryPoolI16CMsgSaxxyAwardedEE.txt': 'GCSDK::CProtoBufMsgMemoryPool<CMsgSaxxyAwarded>', '__ZTV31CMsgGameServerMatchmakingStatus.txt': 'CMsgGameServerMatchmakingStatus', '__ZTVN8CryptoPP13X509PublicKeyE.txt': 'CryptoPP::X509PublicKey', '__ZTVN14C_EconItemView26NetworkVar_m_AttributeListE.txt': 'C_EconItemView::NetworkVar_m_AttributeList', '__ZTV21CUtlCStringConversion.txt': 'CUtlCStringConversion', '__ZTV37C_TFProjectile_SpellTransposeTeleport.txt': 'C_TFProjectile_SpellTransposeTeleport', '__ZTV30CTFQuestPlayerClassRestriction.txt': 'CTFQuestPlayerClassRestriction', '__ZTV39CAchievementTFSniper_KillFlagCarrierBow.txt': 'CAchievementTFSniper_KillFlagCarrierBow', '__ZTV26CTFAnnotationsPanelCallout.txt': 'CTFAnnotationsPanelCallout', '__ZTV13C_PointCamera.txt': 'C_PointCamera', '__ZTVN4vgui4HTMLE.txt': 'vgui::HTML', '__ZTV9CAbsProxy.txt': 'CAbsProxy', '__ZTVN12C_BasePlayer26NetworkVar_m_AttributeListE.txt': 'C_BasePlayer::NetworkVar_m_AttributeList', '__ZTV19CGCThankedBySomeone.txt': 'CGCThankedBySomeone', '__ZTV15CBlueprintPanel.txt': 'CBlueprintPanel', '__ZTV35CItemMaterialCustomizationIconPanel.txt': 'CItemMaterialCustomizationIconPanel', '__ZTVN19PrecacheEffectsTest20ClientEffectRegisterE.txt': 'PrecacheEffectsTest::ClientEffectRegister', '__ZTV13CPanelFactoryI18CBasicControlPanel20VGuiScreenInitData_tE.txt': 'CPanelFactory<CBasicControlPanel, VGuiScreenInitData_t>', '__ZTV34CTFQuestLoadoutPositionRestriction.txt': 'CTFQuestLoadoutPositionRestriction', '__ZTV27CYouTubeRetrieveUserProfile.txt': 'CYouTubeRetrieveUserProfile', '__ZTV36CMsgEconPlayerStrangeCountAdjustment.txt': 'CMsgEconPlayerStrangeCountAdjustment', '__ZTV20CReplayRenderOverlay.txt': 'CReplayRenderOverlay', '__ZTV16CHudUpgradePanel.txt': 'CHudUpgradePanel', '__ZTVSt9bad_alloc.txt': 'std::bad_alloc', '__ZTV10C_TFBottle.txt': 'C_TFBottle', '__ZTVN6google8protobuf14MessageOptionsE.txt': 'google::protobuf::MessageOptions', '__ZTV19CAbuseReportManager.txt': 'CAbuseReportManager', '__ZTV11CCallResultI15CUGCFileRequest32RemoteStorageDownloadUGCResult_tE.txt': 'CCallResult<CUGCFileRequest, RemoteStorageDownloadUGCResult_t>', '__ZTV10C_OP_Decay.txt': 'C_OP_Decay', '__ZTV14CTFHudPasstime.txt': 'CTFHudPasstime', '__ZTV40CMsgGCRemoveCustomizationAttributeSimple.txt': 'CMsgGCRemoveCustomizationAttributeSimple', '__ZTV14C_TFBaseRocket.txt': 'C_TFBaseRocket', '__ZTV24CPDAPanel_Engineer_Build.txt': 'CPDAPanel_Engineer_Build', '__ZTV49CMsgAMGetUserGameStatsResponse_Achievement_Blocks.txt': 'CMsgAMGetUserGameStatsResponse_Achievement_Blocks', '__ZTV34CBasicTraining_ClassSelectionPanel.txt': 'CBasicTraining_ClassSelectionPanel', '__ZTV13CMumbleSystem.txt': 'CMumbleSystem', '__ZTVN5GCSDK12CProtoBufMsgI27CMsgReplayUploadedToYouTubeEE.txt': 'GCSDK::CProtoBufMsg<CMsgReplayUploadedToYouTube>', '__ZTV34CAchievementTFSpy_AchieveProgress2.txt': 'CAchievementTFSpy_AchieveProgress2', '__ZTV49CAchievementTFEngineer_RevengeCritForSentryKiller.txt': 'CAchievementTFEngineer_RevengeCritForSentryKiller', '__ZTVN8CryptoPP10OS_RNG_ErrE.txt': 'CryptoPP::OS_RNG_Err', '__ZTV25CInputPanelItemModelPanel.txt': 'CInputPanelItemModelPanel', '__ZTV16CGCToGCMsgRouted.txt': 'CGCToGCMsgRouted', '__ZTVN8CryptoPP24MontgomeryRepresentationE.txt': 'CryptoPP::MontgomeryRepresentation', '__ZTV26CHudItemEffectMeter_WeaponI9C_TFSwordE.txt': 'CHudItemEffectMeter_Weapon<C_TFSword>', '__ZTV21CEscortStatusTeardrop.txt': 'CEscortStatusTeardrop', '__ZTV11CCallResultI15CUGCFileRequest30RemoteStorageFileShareResult_tE.txt': 'CCallResult<CUGCFileRequest, RemoteStorageFileShareResult_t>', '__ZTV22CHudMenuTauntSelection.txt': 'CHudMenuTauntSelection', '__ZTV14C_TEBeamPoints.txt': 'C_TEBeamPoints', '__ZTV11CCallResultI19CGCUpdateItemSchema22HTTPRequestCompleted_tE.txt': 'CCallResult<CGCUpdateItemSchema, HTTPRequestCompleted_t>', '__ZTV23CYouTubeRetrieveInfoJob.txt': 'CYouTubeRetrieveInfoJob', '__ZTVN15CAboveWaterView15CRefractionViewE.txt': 'CAboveWaterView::CRefractionView', '__ZTV11CHudHDRDemo.txt': 'CHudHDRDemo', '__ZTV17CUtlVectorDataOpsI10CUtlVectorI7CHandleI12C_BaseEntityE10CUtlMemoryIS3_iEELi13EE.txt': 'CUtlVectorDataOps<CUtlVector<CHandle<C_BaseEntity>, CUtlMemory<CHandle<C_BaseEntity>, int> >, 13>', '__ZTVN10__cxxabiv121__vmi_class_type_infoE.txt': '__cxxabiv1::__vmi_class_type_info', '__ZTV20C_TETFParticleEffect.txt': 'C_TETFParticleEffect', '__ZTV37CAchievementTF_MvM_MaxPrimaryUpgrades.txt': 'CAchievementTF_MvM_MaxPrimaryUpgrades', '__ZTV9CCallbackIN4vgui4HTMLE18HTML_ShowToolTip_tLb0EE.txt': 'CCallback<vgui::HTML, HTML_ShowToolTip_t, false>', '__ZTV26CPDAPanel_Engineer_Destroy.txt': 'CPDAPanel_Engineer_Destroy', '__ZTVN5GCSDK6CGCMsgI20MsgGCLookupAccount_tEE.txt': 'GCSDK::CGCMsg<MsgGCLookupAccount_t>', '__ZTV11C_SniperDot.txt': 'C_SniperDot', '__ZTV18C_TFParticleCannon.txt': 'C_TFParticleCannon', '__ZTV32CDirtySpatialPartitionEntityList.txt': 'CDirtySpatialPartitionEntityList', '__ZTV27CMsgGCGetPartnerAccountLink.txt': 'CMsgGCGetPartnerAccountLink', '__ZTV48CAchievementTFDemoman_DominateEngineerThreeTimes.txt': 'CAchievementTFDemoman_DominateEngineerThreeTimes', '__ZTV24CHudItemAttributeTracker.txt': 'CHudItemAttributeTracker', '__ZTV35CAchievementTFScout_StunUberEnemies.txt': 'CAchievementTFScout_StunUberEnemies', '__ZTV17CUtlVectorDataOpsI10CUtlVectorI24SaveRestoreBlockHeader_t10CUtlMemoryIS1_iEELi10EE.txt': 'CUtlVectorDataOps<CUtlVector<SaveRestoreBlockHeader_t, CUtlMemory<SaveRestoreBlockHeader_t, int> >, 10>', '__ZTV27CSchemaAttributeType_UInt64.txt': 'CSchemaAttributeType_UInt64', '__ZTV38CAchievementTFScout_StunCappingEnemies.txt': 'CAchievementTFScout_StunCappingEnemies', '__ZTV23CNotificationQueuePanel.txt': 'CNotificationQueuePanel', '__ZTV20CHudArenaClassLayout.txt': 'CHudArenaClassLayout', '__ZTV21C_HalloweenItemPickup.txt': 'C_HalloweenItemPickup', '__ZTVN6google8protobuf22ServiceDescriptorProtoE.txt': 'google::protobuf::ServiceDescriptorProto', '__ZTV24CCameraOptionsPanel_Free.txt': 'CCameraOptionsPanel_Free', '__ZTV42CGCMsgTFPlayerSkillRatingAdjustment_Player.txt': 'CGCMsgTFPlayerSkillRatingAdjustment_Player', '__ZTV18C_TEGaussExplosion.txt': 'C_TEGaussExplosion', '__ZTV16CTFHudTimeStatus.txt': 'CTFHudTimeStatus', '__ZTV20C_OP_TwistAroundAxis.txt': 'C_OP_TwistAroundAxis', '__ZTV32CAchievementTF_MvM_PlayEachClass.txt': 'CAchievementTF_MvM_PlayEachClass', '__ZTV38CAchievementTFDemoman_KillSoldierGrind.txt': 'CAchievementTFDemoman_KillSoldierGrind', '__ZTV44CAchievementTFSpy_SpyBackstabDominatingEnemy.txt': 'CAchievementTFSpy_SpyBackstabDominatingEnemy', '__ZTV15CQuickListPanel.txt': 'CQuickListPanel', '__ZTV32CGCMsg_WorldItemPlacement_Update.txt': 'CGCMsg_WorldItemPlacement_Update', '__ZTV13CPanelFactoryI30CPDAPanel_Spy_Invis_Pocket_TTG20VGuiScreenInitData_tE.txt': 'CPanelFactory<CPDAPanel_Spy_Invis_Pocket_TTG, VGuiScreenInitData_t>', '__ZTV9CCallbackIN4vgui4HTMLE16HTML_SetCursor_tLb0EE.txt': 'CCallback<vgui::HTML, HTML_SetCursor_t, false>', '__ZTV22CGCClientHelloResponse.txt': 'CGCClientHelloResponse', '__ZTV33CAchievementTFScout_StealSandwich.txt': 'CAchievementTFScout_StealSandwich', '__ZTV43CAchievementTFHalloweenDoomsdayCollectDucks.txt': 'CAchievementTFHalloweenDoomsdayCollectDucks', '__ZTV27CParticleOperatorDefinitionI20C_OP_Orient2DRelToCPE.txt': 'CParticleOperatorDefinition<C_OP_Orient2DRelToCP>', '__ZTVN8CryptoPP46PK_DeterministicSignatureMessageEncodingMethodE.txt': 'CryptoPP::PK_DeterministicSignatureMessageEncodingMethod', '__ZTVN19CDynamicRecipePanel27CDynamicRecipeItemMatchFindE.txt': 'CDynamicRecipePanel::CDynamicRecipeItemMatchFind', '__ZTV41CTraceFilterIgnoreTeammatesAndTeamObjects.txt': 'CTraceFilterIgnoreTeammatesAndTeamObjects', '__ZTVN5GCSDK12CProtoBufMsgI38CMsgLookupMultipleAccountNamesResponseEE.txt': 'GCSDK::CProtoBufMsg<CMsgLookupMultipleAccountNamesResponse>', '__ZTV28CGCClientJobFinalizePurchase.txt': 'CGCClientJobFinalizePurchase', '__ZTV29CPDAPanel_Spy_Invis_Pocket_HM.txt': 'CPDAPanel_Spy_Invis_Pocket_HM', '__ZTV19C_TEPlayerAnimEvent.txt': 'C_TEPlayerAnimEvent', '__ZTVN5GCSDK22CProtoBufMsgMemoryPoolI34CMsgLeaveGameAndPrepareToJoinPartyEE.txt': 'GCSDK::CProtoBufMsgMemoryPool<CMsgLeaveGameAndPrepareToJoinParty>', '__ZTV28CAchievementTFHeavy_FireLots.txt': 'CAchievementTFHeavy_FireLots', '__ZTVN22CItemSelectionCriteria13CSetConditionE.txt': 'CItemSelectionCriteria::CSetCondition', '__ZTV23CAnimateSpecificTexture.txt': 'CAnimateSpecificTexture', '__ZTV26CHudItemEffectMeter_WeaponI20C_TFFlareGun_RevengeE.txt': 'CHudItemEffectMeter_Weapon<C_TFFlareGun_Revenge>', '__ZTV19CDummyMaterialProxy.txt': 'CDummyMaterialProxy', '__ZTV13CTFPrediction.txt': 'CTFPrediction', '__ZTV16CPlayerLogoProxy.txt': 'CPlayerLogoProxy', '__ZTV11CCallResultI16CLeaderboardInfo23LeaderboardFindResult_tE.txt': 'CCallResult<CLeaderboardInfo, LeaderboardFindResult_t>', '__ZTV16CBulletWhizTimer.txt': 'CBulletWhizTimer', '__ZTV20CBulletPenetrateEnum.txt': 'CBulletPenetrateEnum', '__ZTV22CApplyCustomTextureJob.txt': 'CApplyCustomTextureJob', '__ZTV18CStatTrakIconProxy.txt': 'CStatTrakIconProxy', '__ZTV26CHudItemEffectMeter_WeaponI15C_WeaponMedigunE.txt': 'CHudItemEffectMeter_Weapon<C_WeaponMedigun>', '__ZTV43CMsgGC_Client2GCEconPreviewDataBlockRequest.txt': 'CMsgGC_Client2GCEconPreviewDataBlockRequest', '__ZTV31CGCToGCMsgMasterStartupComplete.txt': 'CGCToGCMsgMasterStartupComplete', '__ZTV36CAchievementTFSniper_SniperTauntKill.txt': 'CAchievementTFSniper_SniperTauntKill', '__ZTV36CAchievementTFHeavy_AchieveProgress2.txt': 'CAchievementTFHeavy_AchieveProgress2', '__ZTV18CBuildingHealthBar.txt': 'CBuildingHealthBar', '__ZTV19CSimplePanelToolTip.txt': 'CSimplePanelToolTip', '__ZTV13CPanelFactoryI26CDispenserControlPanel_Red20VGuiScreenInitData_tE.txt': 'CPanelFactory<CDispenserControlPanel_Red, VGuiScreenInitData_t>', '__ZTV36CAchievementTFSniper_JarateKillMelee.txt': 'CAchievementTFSniper_JarateKillMelee', '__ZTV24CRagdollAnimatedFriction.txt': 'CRagdollAnimatedFriction', '__ZTV27CMsgDevDebugRollLootRequest.txt': 'CMsgDevDebugRollLootRequest', '__ZTVN5GCSDK22CProtoBufMsgMemoryPoolI28CMsgSOCacheSubscriptionCheckEE.txt': 'GCSDK::CProtoBufMsgMemoryPool<CMsgSOCacheSubscriptionCheck>', '__ZTV10CHudWeapon.txt': 'CHudWeapon', '__ZTV22CClientRenderablesList.txt': 'CClientRenderablesList', '__ZTV18CTFMapContribution.txt': 'CTFMapContribution', '__ZTV20ICaptureFlagAutoList.txt': 'ICaptureFlagAutoList', '__ZTV27CParticleOperatorDefinitionI26C_INIT_RandomRotationSpeedE.txt': 'CParticleOperatorDefinition<C_INIT_RandomRotationSpeed>', '__ZTV9CCallbackIN4vgui4HTMLE23HTML_HorizontalScroll_tLb0EE.txt': 'CCallback<vgui::HTML, HTML_HorizontalScroll_t, false>', '__ZTV17CDominationsPanel.txt': 'CDominationsPanel', '__ZTV39CGCSystemMsg_GetAccountDetails_Response.txt': 'CGCSystemMsg_GetAccountDetails_Response', '__ZTV13CWarningSwoop.txt': 'CWarningSwoop', '__ZTV27CParticleOperatorDefinitionI20C_INIT_RandomYawFlipE.txt': 'CParticleOperatorDefinition<C_INIT_RandomYawFlip>', '__ZTV13C_EyeballBoss.txt': 'C_EyeballBoss', '__ZTV26CHudItemEffectMeter_WeaponI11C_TFMinigunE.txt': 'CHudItemEffectMeter_Weapon<C_TFMinigun>', '__ZTV11CPupilProxy.txt': 'CPupilProxy', '__ZTV20CGiveawayPlayerPanel.txt': 'CGiveawayPlayerPanel', '__ZTV15C_TFFlameRocket.txt': 'C_TFFlameRocket', '__ZTV17C_TFMedigunShield.txt': 'C_TFMedigunShield', '__ZTV21C_INIT_RandomRotation.txt': 'C_INIT_RandomRotation', '__ZTV26CAchievementTFSpy_FYIMedic.txt': 'CAchievementTFSpy_FYIMedic', '__ZTV43CAchievementTFEngineer_RemoveSapperLongDist.txt': 'CAchievementTFEngineer_RemoveSapperLongDist', '__ZTV33CMsgTFFreeTrialConvertedToPremium.txt': 'CMsgTFFreeTrialConvertedToPremium', '__ZTV17CHudAnimationInfo.txt': 'CHudAnimationInfo', '__ZTV12C_TFRevolver.txt': 'C_TFRevolver', '__ZTVN4vgui8RichTextE.txt': 'vgui::RichText', '__ZTV29CMsgGC_Halloween_ReservedItem.txt': 'CMsgGC_Halloween_ReservedItem', '__ZTV33CAchievementTFMedic_TopScoreboard.txt': 'CAchievementTFMedic_TopScoreboard', '__ZTV19CHudWeaponSelection.txt': 'CHudWeaponSelection', '__ZTV23CMsgGCRemoveUpgradeCard.txt': 'CMsgGCRemoveUpgradeCard', '__ZTV33CMsgFulfillDynamicRecipeComponent.txt': 'CMsgFulfillDynamicRecipeComponent', '__ZTV20CTFFreezePanelHealth.txt': 'CTFFreezePanelHealth', '__ZTV36CAchievementTFHeavy_AchieveProgress3.txt': 'CAchievementTFHeavy_AchieveProgress3', '__ZTV23C_PasstimeBounceReticle.txt': 'C_PasstimeBounceReticle', '__ZTV29CAchievementNotificationPanel.txt': 'CAchievementNotificationPanel', '__ZTVZ20BSP_BackgroundRepackPKcS0_N8IBSPPack15eRepackBSPFlagsEE25BackgroundBSPRepackThread.txt': 'BSP_BackgroundRepack(char const*, char const*, IBSPPack::eRepackBSPFlags)::BackgroundBSPRepackThread', '__ZTV18CTraceFilterHitAll.txt': 'CTraceFilterHitAll', '__ZTV16CGC_Duel_Request.txt': 'CGC_Duel_Request', '__ZTV11CExRichText.txt': 'CExRichText', '__ZTV39CAchievementTF_MvM_MaxPlayerResistances.txt': 'CAchievementTF_MvM_MaxPlayerResistances', '__ZTV38CAchievementTFDemoman_AchieveProgress2.txt': 'CAchievementTFDemoman_AchieveProgress2', '__ZTV35CMsgGCToGCIncrementRecruitmentLevel.txt': 'CMsgGCToGCIncrementRecruitmentLevel', '__ZTV12C_BasePlayer.txt': 'C_BasePlayer', '__ZTV13C_CaptureZone.txt': 'C_CaptureZone', '__ZTVN5GCSDK12CProtoBufMsgI27CMsgGCStorePurchaseFinalizeEE.txt': 'GCSDK::CProtoBufMsg<CMsgGCStorePurchaseFinalize>', '__ZTV29CAchievementTF_TeamPyrovision.txt': 'CAchievementTF_TeamPyrovision', '__ZTV23CTFPlayerPanelGUIHealth.txt': 'CTFPlayerPanelGUIHealth', '__ZTV18CTrainingBasePanel.txt': 'CTrainingBasePanel', '__ZTVN24PrecacheEffectBloodSpray20ClientEffectRegisterE.txt': 'PrecacheEffectBloodSpray::ClientEffectRegister', '__ZTV28CTFClientDisplayNotification.txt': 'CTFClientDisplayNotification', '__ZTV36C_TFProjectile_ThrowableBreadMonster.txt': 'C_TFProjectile_ThrowableBreadMonster', '__ZTVN5GCSDK22CProtoBufMsgMemoryPoolI27CMsgTFGoldenWrenchBroadcastEE.txt': 'GCSDK::CProtoBufMsgMemoryPool<CMsgTFGoldenWrenchBroadcast>', '__ZTVN5GCSDK12CProtoBufMsgI27CMsgRequestInventoryRefreshEE.txt': 'GCSDK::CProtoBufMsg<CMsgRequestInventoryRefresh>', '__ZTV13sky3dparams_t.txt': 'sky3dparams_t', '__ZTV16CFireSmokeEffect.txt': 'CFireSmokeEffect', '__ZTV21CFlexSceneFileManager.txt': 'CFlexSceneFileManager', '__ZTV14ITFPumpkinBomb.txt': 'ITFPumpkinBomb', '__ZTV23CMsgPartyInviteResponse.txt': 'CMsgPartyInviteResponse', '__ZTV13CHudStopWatch.txt': 'CHudStopWatch', '__ZTV17C_TFPowerupBottle.txt': 'C_TFPowerupBottle', '__ZTV18CMsgApplyAutograph.txt': 'CMsgApplyAutograph', '__ZTV27CParticleOperatorDefinitionI16C_INIT_RandomYawE.txt': 'CParticleOperatorDefinition<C_INIT_RandomYaw>', '__ZTV24CMotionBlurMaterialProxy.txt': 'CMotionBlurMaterialProxy', '__ZTVN6google8protobuf2io16ArrayInputStreamE.txt': 'google::protobuf::io::ArrayInputStream', '__ZTV18CGlowOverlaySystem.txt': 'CGlowOverlaySystem', '__ZTVN19SmokeStackMaterials20ClientEffectRegisterE.txt': 'SmokeStackMaterials::ClientEffectRegister', '__ZTV35CAchievementTFFoundry_PlayEachClass.txt': 'CAchievementTFFoundry_PlayEachClass', '__ZTV10CIntroMenu.txt': 'CIntroMenu', '__ZTV20CMsgCraftingResponse.txt': 'CMsgCraftingResponse', '__ZTV37CAchievementTFHeavy_KillHeaviesGloves.txt': 'CAchievementTFHeavy_KillHeaviesGloves', '__ZTV16CTFParticlePanel.txt': 'CTFParticlePanel', '__ZTV19CTEParticleRenderer.txt': 'CTEParticleRenderer', '__ZTV31CConfirmApplyPaintCanBaseDialog.txt': 'CConfirmApplyPaintCanBaseDialog', '__ZTV27CParticleOperatorDefinitionI21C_OP_PlanarConstraintE.txt': 'CParticleOperatorDefinition<C_OP_PlanarConstraint>', '__ZTV13CTFTextWindow.txt': 'CTFTextWindow', '__ZTV16CSimple3DEmitter.txt': 'CSimple3DEmitter', '__ZTV18CCopyableUtlVectorI16MvMTourMission_t10CUtlMemoryIS0_iEE.txt': 'CCopyableUtlVector<MvMTourMission_t, CUtlMemory<MvMTourMission_t, int> >', '__ZTV36CAchievementTFWinDustbowlNoEnemyCaps.txt': 'CAchievementTFWinDustbowlNoEnemyCaps', '__ZTV32CMsgGC_GameServer_CreateIdentity.txt': 'CMsgGC_GameServer_CreateIdentity', '__ZTV14CPhysicsSystem.txt': 'CPhysicsSystem', '__ZTV38CAchievementTFEngineer_DestroyStickies.txt': 'CAchievementTFEngineer_DestroyStickies', '__ZTV44CAchievementTFHalloweenHelltowerKillBrothers.txt': 'CAchievementTFHalloweenHelltowerKillBrothers', '__ZTV18CGCUseItemResponse.txt': 'CGCUseItemResponse', '__ZTV36CMsgGCToGCGrantSelfMadeItemToAccount.txt': 'CMsgGCToGCGrantSelfMadeItemToAccount', '__ZTV19CHudChatFilterPanel.txt': 'CHudChatFilterPanel', '__ZTV22CTFHUDRobotDestruction.txt': 'CTFHUDRobotDestruction', '__ZTV48CMsgTFRequestChatChannelListResponse_ChatChannel.txt': 'CMsgTFRequestChatChannelListResponse_ChatChannel', '__ZTV18CDebugOverlayPanel.txt': 'CDebugOverlayPanel', '__ZTV22C_INIT_CreateAlongPath.txt': 'C_INIT_CreateAlongPath', '__ZTVN4vgui9TextEntryE.txt': 'vgui::TextEntry', '__ZTV4CJob.txt': 'CJob', '__ZTV33CAchievementTFSoldier_DefendMedic.txt': 'CAchievementTFSoldier_DefendMedic', '__ZTV17C_EntityClassListI21C_FuncReflectiveGlassE.txt': 'C_EntityClassList<C_FuncReflectiveGlass>', '__ZTV27CParticleOperatorDefinitionI28C_OP_ConstrainDistanceToPathE.txt': 'CParticleOperatorDefinition<C_OP_ConstrainDistanceToPath>', '__ZTV24CBaseClientRenderTargets.txt': 'CBaseClientRenderTargets', '__ZTV22CGBackpackSortFinished.txt': 'CGBackpackSortFinished', '__ZTV16C_TempEntsSystem.txt': 'C_TempEntsSystem', '__ZTV18CEntityRandomProxy.txt': 'CEntityRandomProxy', '__ZTV23CMsgSetLobbySafeToLeave.txt': 'CMsgSetLobbySafeToLeave', '__ZTV32CAchievementTFMedic_SaveTeammate.txt': 'CAchievementTFMedic_SaveTeammate', '__ZTVN5GCSDK21CProtoBufSharedObjectI22CSOTFLadderPlayerStatsLi39EEE.txt': 'GCSDK::CProtoBufSharedObject<CSOTFLadderPlayerStats, 39>', '__ZTV29CMsgGCRequestSubGCSessionInfo.txt': 'CMsgGCRequestSubGCSessionInfo', '__ZTV36CConfirmCardUpgradeApplicationDialog.txt': 'CConfirmCardUpgradeApplicationDialog', '__ZTV28CMsgGCGetCommandListResponse.txt': 'CMsgGCGetCommandListResponse', '__ZTV35CAchievementTFSoldier_KillSpyKiller.txt': 'CAchievementTFSoldier_KillSpyKiller', '__ZTV15CGCUpdateConVar.txt': 'CGCUpdateConVar', '__ZTV20CProxyHeartbeatScale.txt': 'CProxyHeartbeatScale', '__ZTV21CMsgGCGetPersonaNames.txt': 'CMsgGCGetPersonaNames', '__ZTVN5GCSDK12CProtoBufMsgI17CMsgGCGiftedItemsEE.txt': 'GCSDK::CProtoBufMsg<CMsgGCGiftedItems>', '__ZTV17CLessOrEqualProxy.txt': 'CLessOrEqualProxy', '__ZTV31C_TFRobotDestruction_RobotGroup.txt': 'C_TFRobotDestruction_RobotGroup', '__ZTV34CAchievementTFPyro_BurnSimulScouts.txt': 'CAchievementTFPyro_BurnSimulScouts', '__ZTV31CAchievementTFPyro_KillTeamwork.txt': 'CAchievementTFPyro_KillTeamwork', '__ZTV26CHudItemEffectMeter_WeaponI13C_TFSpellBookE.txt': 'CHudItemEffectMeter_Weapon<C_TFSpellBook>', '__ZTV14CGCMsgSQLStats.txt': 'CGCMsgSQLStats', '__ZTV11CCallResultI18CFilePublishDialog24SubmitItemUpdateResult_tE.txt': 'CCallResult<CFilePublishDialog, SubmitItemUpdateResult_t>', '__ZTVN5GCSDK6CGCMsgI18MsgGCMOTDRequest_tEE.txt': 'GCSDK::CGCMsg<MsgGCMOTDRequest_t>', '__ZTV20CHudChatFilterButton.txt': 'CHudChatFilterButton', '__ZTVN8CryptoPP15InvalidArgumentE.txt': 'CryptoPP::InvalidArgument', '__ZTV22C_OP_ConstrainDistance.txt': 'C_OP_ConstrainDistance', '__ZTV23CEntityDataInstantiatorI12CWatcherListE.txt': 'CEntityDataInstantiator<CWatcherList>', '__ZTV18CStyleSelectDialog.txt': 'CStyleSelectDialog', '__ZTV18ClientModeTFNormal.txt': 'ClientModeTFNormal', '__ZTV37CAchievementTF_MvM_KillRobotMegaGrind.txt': 'CAchievementTF_MvM_KillRobotMegaGrind', '__ZTVN6google8protobuf28UninterpretedOption_NamePartE.txt': 'google::protobuf::UninterpretedOption_NamePart', '__ZTV37CGCSystemMsg_GetPurchaseTrust_Request.txt': 'CGCSystemMsg_GetPurchaseTrust_Request', '__ZTV20CMsgApplyStrangePart.txt': 'CMsgApplyStrangePart', '__ZTV31CAchievementTFScout_KillStunned.txt': 'CAchievementTFScout_KillStunned', '__ZTV19C_INIT_PositionWarp.txt': 'C_INIT_PositionWarp', '__ZTV15C_TEBloodSprite.txt': 'C_TEBloodSprite', '__ZTV36CAchievementTFHeavy_AssistHeavyGrind.txt': 'CAchievementTFHeavy_AssistHeavyGrind', '__ZTV16C_OP_RandomForce.txt': 'C_OP_RandomForce', '__ZTV14C_BotNPCMinion.txt': 'C_BotNPCMinion', '__ZTV29CGCDev_NewItemRequestResponse.txt': 'CGCDev_NewItemRequestResponse', '__ZTV11CCallResultI16CLeaderboardInfo29LeaderboardScoresDownloaded_tE.txt': 'CCallResult<CLeaderboardInfo, LeaderboardScoresDownloaded_t>', '__ZTV23CGCMsgSystemStatsSchema.txt': 'CGCMsgSystemStatsSchema', '__ZTV27CParticleOperatorDefinitionI18C_INIT_RandomColorE.txt': 'CParticleOperatorDefinition<C_INIT_RandomColor>', '__ZTV26CMsgHalloween_Merasmus2012.txt': 'CMsgHalloween_Merasmus2012', '__ZTVN5GCSDK22CProtoBufMsgMemoryPoolI20CMsgApplyUpgradeCardEE.txt': 'GCSDK::CProtoBufMsgMemoryPool<CMsgApplyUpgradeCard>', '__ZTV24CGCLookupAccountResponse.txt': 'CGCLookupAccountResponse', '__ZTV22CMsgTFThankedBySomeone.txt': 'CMsgTFThankedBySomeone', '__ZTV31CAchievementTFMedic_HealCallers.txt': 'CAchievementTFMedic_HealCallers', '__ZTV15C_INIT_AgeNoise.txt': 'C_INIT_AgeNoise', '__ZTV18CConfirmNameDialog.txt': 'CConfirmNameDialog', '__ZTV25CInterpolatedVarArrayBaseIfLb0EE.txt': 'CInterpolatedVarArrayBase<float, false>', '__ZTV25CTFHudMannVsMachineStatus.txt': 'CTFHudMannVsMachineStatus', '__ZTV41CAttributeIterator_GetTypedAttributeValueIyyE.txt': 'CAttributeIterator_GetTypedAttributeValue<unsigned long long, unsigned long long>', '__ZTV12CAvatarImage.txt': 'CAvatarImage', '__ZTV28CGCLookupAccountNameResponse.txt': 'CGCLookupAccountNameResponse', '__ZTV11CSOEconItem.txt': 'CSOEconItem', '__ZTV19C_HalloweenSoulPack.txt': 'C_HalloweenSoulPack', '__ZTV11C_GameRules.txt': 'C_GameRules', '__ZTV18C_ObjectTeleporter.txt': 'C_ObjectTeleporter', '__ZTVN5GCSDK12CProtoBufMsgI22CMsgTFThankedBySomeoneEE.txt': 'GCSDK::CProtoBufMsg<CMsgTFThankedBySomeone>', '__ZTV20CGCMsgMemCachedStats.txt': 'CGCMsgMemCachedStats', '__ZTV36CHudBuildingStatusContainer_Engineer.txt': 'CHudBuildingStatusContainer_Engineer', '__ZTV18C_INIT_RandomColor.txt': 'C_INIT_RandomColor', '__ZTV20CTFHudMultipleEscort.txt': 'CTFHudMultipleEscort', '__ZTV16CInfoDescription.txt': 'CInfoDescription', '__ZTV18CMsgNotifyWatchdog.txt': 'CMsgNotifyWatchdog', '__ZTV31CMsgTFCoaching_LikeCurrentCoach.txt': 'CMsgTFCoaching_LikeCurrentCoach', '__ZTV21C_TFParachute_Primary.txt': 'C_TFParachute_Primary', '__ZTV9CCallbackIN4vgui4HTMLE23HTML_OpenLinkInNewTab_tLb0EE.txt': 'CCallback<vgui::HTML, HTML_OpenLinkInNewTab_t, false>', '__ZTVN8CryptoPP26RandomizedTrapdoorFunctionE.txt': 'CryptoPP::RandomizedTrapdoorFunction', '__ZTV34CAchievementTFScout_KnockIntoTrain.txt': 'CAchievementTFScout_KnockIntoTrain', '__ZTV19CPhysBoxMultiplayer.txt': 'CPhysBoxMultiplayer', '__ZTV26C_TFRobotDestruction_Robot.txt': 'C_TFRobotDestruction_Robot', '__ZTV16CWrapMinMaxProxy.txt': 'CWrapMinMaxProxy', '__ZTV23CGCClientJobGetUserData.txt': 'CGCClientJobGetUserData', '__ZTV39CMsgGC_GameServer_ResetIdentityResponse.txt': 'CMsgGC_GameServer_ResetIdentityResponse', '__ZTV16C_TFFlameThrower.txt': 'C_TFFlameThrower', '__ZTV44CAchievementTF_MvM_RocketSpecialistStunGrind.txt': 'CAchievementTF_MvM_RocketSpecialistStunGrind', '__ZTV41CAchievementTFHalloweenHelltowerKillGrind.txt': 'CAchievementTFHalloweenHelltowerKillGrind', '__ZTV18CQuestNotification.txt': 'CQuestNotification', '__ZTV18CTFPlayerAnimState.txt': 'CTFPlayerAnimState', '__ZTVN14C_EconItemView47NetworkVar_m_NetworkedDynamicAttributesForDemosE.txt': 'C_EconItemView::NetworkVar_m_NetworkedDynamicAttributesForDemos', '__ZTV27CMsgGCRequestStoreSalesData.txt': 'CMsgGCRequestStoreSalesData', '__ZTV16CGCCraftResponse.txt': 'CGCCraftResponse', '__ZTV43CAchievementTFSoldier_AssistMedicUbercharge.txt': 'CAchievementTFSoldier_AssistMedicUbercharge', '__ZTV20CTestItemBotControls.txt': 'CTestItemBotControls', '__ZTVN5GCSDK6CGCMsgINS_12MsgGCEmpty_tEEE.txt': 'GCSDK::CGCMsg<GCSDK::MsgGCEmpty_t>', '__ZTVN15CTFPlayerShared27NetworkVar_m_RoundScoreDataE.txt': 'CTFPlayerShared::NetworkVar_m_RoundScoreData', '__ZTV21CMsgSOMultipleObjects.txt': 'CMsgSOMultipleObjects', '__ZTV28CEquipSlotItemSelectionPanel.txt': 'CEquipSlotItemSelectionPanel', '__ZTV15CTrainingDialog.txt': 'CTrainingDialog', '__ZTV21C_PlayerAttachedModel.txt': 'C_PlayerAttachedModel', '__ZTV4CFPS.txt': 'CFPS', '__ZTV18CCollisionProperty.txt': 'CCollisionProperty', '__ZTV26CMaterialOverrideContainerI18IEconItemInterfaceE.txt': 'CMaterialOverrideContainer<IEconItemInterface>', '__ZTV27CTFQuestGameTypeRestriction.txt': 'CTFQuestGameTypeRestriction', '__ZTVN5GCSDK15CWorkThreadPoolE.txt': 'GCSDK::CWorkThreadPool', '__ZTV22C_TFWearableDemoShield.txt': 'C_TFWearableDemoShield', '__ZTVN5GCSDK25CGCSOCacheUnsubscribedJobE.txt': 'GCSDK::CGCSOCacheUnsubscribedJob', '__ZTV13CCallbackImplILi20EE.txt': 'CCallbackImpl<20>', '__ZTV33CAchievementTFWinHydroNoEnemyCaps.txt': 'CAchievementTFWinHydroNoEnemyCaps', '__ZTV35CAchievementTFHalloweenMerasmusKill.txt': 'CAchievementTFHalloweenMerasmusKill', '__ZTV26CDuelMiniGameEventListener.txt': 'CDuelMiniGameEventListener', '__ZTV19CDynamicRecipePanel.txt': 'CDynamicRecipePanel', '__ZTVN5GCSDK21ISharedObjectListenerE.txt': 'GCSDK::ISharedObjectListener', '__ZTV22CMsgSOCacheHaveVersion.txt': 'CMsgSOCacheHaveVersion', '__ZTV38CAchievementTFBurnPlayersInMinimumTime.txt': 'CAchievementTFBurnPlayersInMinimumTime', '__ZTV10CNavButton.txt': 'CNavButton', '__ZTV21CMultiPlayerAnimState.txt': 'CMultiPlayerAnimState', '__ZTV42CMsgGCGetPersonaNames_Response_PersonaName.txt': 'CMsgGCGetPersonaNames_Response_PersonaName', '__ZTV22CHudAchievementTracker.txt': 'CHudAchievementTracker', '__ZTV31CAchievementTFPyro_KillTaunters.txt': 'CAchievementTFPyro_KillTaunters', '__ZTV28C_TFProjectile_GrapplingHook.txt': 'C_TFProjectile_GrapplingHook', '__ZTV15C_OP_RenderRope.txt': 'C_OP_RenderRope', '__ZTV18CTFPlayerInventory.txt': 'CTFPlayerInventory', '__ZTV27CParticleOperatorDefinitionI22C_INIT_CreateWithinBoxE.txt': 'CParticleOperatorDefinition<C_INIT_CreateWithinBox>', '__ZTV41CAchievementTF_MvM_AdvancedEarnAllBonuses.txt': 'CAchievementTF_MvM_AdvancedEarnAllBonuses', '__ZTV32CGCCompleteDynamicRecipeResponse.txt': 'CGCCompleteDynamicRecipeResponse', '__ZTV28CGCToGCMsgMasterAck_Response.txt': 'CGCToGCMsgMasterAck_Response', '__ZTV27CParticleOperatorDefinitionI22C_OP_InterpolateRadiusE.txt': 'CParticleOperatorDefinition<C_OP_InterpolateRadius>', '__ZTVN5GCSDK12CProtoBufMsgI26CMsgGCNameItemNotificationEE.txt': 'GCSDK::CProtoBufMsg<CMsgGCNameItemNotification>', '__ZTV29CTFQuestWeaponTypeRestriction.txt': 'CTFQuestWeaponTypeRestriction', '__ZTV13CCallbackImplILi8EE.txt': 'CCallbackImpl<8>', '__ZTVN30CConfirmCustomizeTextureDialog18FilteredImagePanelE.txt': 'CConfirmCustomizeTextureDialog::FilteredImagePanel', '__ZTV39CAchievementTFSnakewater_PushBackAndWin.txt': 'CAchievementTFSnakewater_PushBackAndWin', '__ZTV24CGCClientJobInitPurchase.txt': 'CGCClientJobInitPurchase', '__ZTV28CMsgGC_Halloween_ItemClaimed.txt': 'CMsgGC_Halloween_ItemClaimed', '__ZTV15SixenseGUIFrame.txt': 'SixenseGUIFrame', '__ZTV31CAchievementTFReplay_SaveReplay.txt': 'CAchievementTFReplay_SaveReplay', '__ZTV38CAchievementTFPyro_DefendControlPoints.txt': 'CAchievementTFPyro_DefendControlPoints', '__ZTV31CAchievementTFScout_DodgeDamage.txt': 'CAchievementTFScout_DodgeDamage', '__ZTVN5GCSDK22CProtoBufMsgMemoryPoolI39CMsgGCQuestObjective_RequestLoanerItemsEE.txt': 'GCSDK::CProtoBufMsgMemoryPool<CMsgGCQuestObjective_RequestLoanerItems>', '__ZTV29CGCMsgGC_SpyVsEngyWar_JoinWar.txt': 'CGCMsgGC_SpyVsEngyWar_JoinWar', '__ZTVN5GCSDK12CProtoBufMsgI20CMsgReplicateConVarsEE.txt': 'GCSDK::CProtoBufMsg<CMsgReplicateConVars>', '__ZTV25CTraceFilterIgnorePlayers.txt': 'CTraceFilterIgnorePlayers', '__ZTV24CCollectionCraftingPanel.txt': 'CCollectionCraftingPanel', '__ZTVN6google8protobuf10TextFormat6Parser10ParserImpl20ParserErrorCollectorE.txt': 'google::protobuf::TextFormat::Parser::ParserImpl::ParserErrorCollector', '__ZTV23CMsgCreateOrUpdateParty.txt': 'CMsgCreateOrUpdateParty', '__ZTV24CSOItemCriteriaCondition.txt': 'CSOItemCriteriaCondition', '__ZTV21CMsgGCToGCPingRequest.txt': 'CMsgGCToGCPingRequest', '__ZTV41CAchievementTFHalloweenHelltowerMilestone.txt': 'CAchievementTFHalloweenHelltowerMilestone', '__ZTV10CCutsPanel.txt': 'CCutsPanel', '__ZTV23CAchievementTrackerItem.txt': 'CAchievementTrackerItem', '__ZTV18CMsgAMFindAccounts.txt': 'CMsgAMFindAccounts', '__ZTVN8CryptoPP14CryptoMaterialE.txt': 'CryptoPP::CryptoMaterial', '__ZTV27CParticleOperatorDefinitionI22C_INIT_RemapCPtoVectorE.txt': 'CParticleOperatorDefinition<C_INIT_RemapCPtoVector>', '__ZTV28CEconTool_ItemEaterRecharger.txt': 'CEconTool_ItemEaterRecharger', '__ZTV30CConfirmCustomizeTextureDialog.txt': 'CConfirmCustomizeTextureDialog', '__ZTVN5GCSDK12CProtoBufMsgI24CMsgTFCoaching_FindCoachEE.txt': 'GCSDK::CProtoBufMsg<CMsgTFCoaching_FindCoach>', '__ZTV31C_TFProjectile_SpellSpawnZombie.txt': 'C_TFProjectile_SpellSpawnZombie', '__ZTV23CMsgMvMVictoryInfo_Item.txt': 'CMsgMvMVictoryInfo_Item', '__ZTV27CAchievementTFPyro_RageQuit.txt': 'CAchievementTFPyro_RageQuit', '__ZTV11CStorePanel.txt': 'CStorePanel', '__ZTV14C_SpotlightEnd.txt': 'C_SpotlightEnd', '__ZTV20CMsgUpdateItemSchema.txt': 'CMsgUpdateItemSchema', '__ZTV31CAchievementTFHeavy_DefendMedic.txt': 'CAchievementTFHeavy_DefendMedic', '__ZTV36CAchievementTFHeavy_DamageTypesTaken.txt': 'CAchievementTFHeavy_DamageTypesTaken', '__ZTV22CStudioStatsEnumerator.txt': 'CStudioStatsEnumerator', '__ZTV38CAchievementTFSoldier_AchieveProgress1.txt': 'CAchievementTFSoldier_AchieveProgress1', '__ZTV54CAchievementTFEngineer_SentryKillPlayersCapturingPoint.txt': 'CAchievementTFEngineer_SentryKillPlayersCapturingPoint', '__ZTV29CStatModuleItemSelectionPanel.txt': 'CStatModuleItemSelectionPanel', '__ZTVN5GCSDK22CProtoBufMsgMemoryPoolI43CMsgGC_Client2GCEconPreviewDataBlockRequestEE.txt': 'GCSDK::CProtoBufMsgMemoryPool<CMsgGC_Client2GCEconPreviewDataBlockRequest>', '__ZTV16CZoomManipulator.txt': 'CZoomManipulator', '__ZTV29CRichTextWithScrollbarBorders.txt': 'CRichTextWithScrollbarBorders', '__ZTV21CViewportClientSystem.txt': 'CViewportClientSystem', '__ZTVN5GCSDK22CProtoBufMsgMemoryPoolI22CMsgGCClientMarketDataEE.txt': 'GCSDK::CProtoBufMsgMemoryPool<CMsgGCClientMarketData>', '__ZTV25C_OP_InstantaneousEmitter.txt': 'C_OP_InstantaneousEmitter', '__ZTV42CAchievementTF_MeleeKillClassicRifleSniper.txt': 'CAchievementTF_MeleeKillClassicRifleSniper', '__ZTVN4vgui8TreeViewE.txt': 'vgui::TreeView', '__ZTV26CMsgGC_Halloween_GrantItem.txt': 'CMsgGC_Halloween_GrantItem', '__ZTV38CAchievementTFFoundry_PushIntoCauldron.txt': 'CAchievementTFFoundry_PushIntoCauldron', '__ZTV16C_SporeExplosion.txt': 'C_SporeExplosion', '__ZTV47CAchievementTFSniper_ClassicRifleHeadshotJumper.txt': 'CAchievementTFSniper_ClassicRifleHeadshotJumper', '__ZTV9CFPSPanel.txt': 'CFPSPanel', '__ZTVN5GCSDK12CProtoBufMsgI29CMsgApplyStrangeCountTransferEE.txt': 'GCSDK::CProtoBufMsg<CMsgApplyStrangeCountTransfer>', '__ZTV13C_TFWeaponPDA.txt': 'C_TFWeaponPDA', '__ZTV25CMsgGCStorePurchaseCancel.txt': 'CMsgGCStorePurchaseCancel', '__ZTV22CTFItemInspectionPanel.txt': 'CTFItemInspectionPanel', '__ZTVN5GCSDK12CProtoBufMsgI14CGCMsgTFSyncExEE.txt': 'GCSDK::CProtoBufMsg<CGCMsgTFSyncEx>', '__ZTV40CAchievementTFDemoman_KillWithDirectPipe.txt': 'CAchievementTFDemoman_KillWithDirectPipe', '__ZTV7Dragger.txt': 'Dragger', '__ZTV31CAchievementTFProcess_WinRounds.txt': 'CAchievementTFProcess_WinRounds', '__ZTV27C_TFProjectile_SentryRocket.txt': 'C_TFProjectile_SentryRocket', '__ZTV16CTFConditionList.txt': 'CTFConditionList', '__ZTV23CMsgApplyToolToBaseItem.txt': 'CMsgApplyToolToBaseItem', '__ZTV27CParticleOperatorDefinitionI27C_INIT_RandomSecondSequenceE.txt': 'CParticleOperatorDefinition<C_INIT_RandomSecondSequence>', '__ZTV12VoteBarPanel.txt': 'VoteBarPanel', '__ZTVN5GCSDK22CProtoBufMsgMemoryPoolI25CMsgGCStorePurchaseCancelEE.txt': 'GCSDK::CProtoBufMsgMemoryPool<CMsgGCStorePurchaseCancel>', '__ZTV20CStorePricePanel_New.txt': 'CStorePricePanel_New', '__ZTV18CClassLoadoutPanel.txt': 'CClassLoadoutPanel', '__ZTV26CBaseQuestObjectiveTracker.txt': 'CBaseQuestObjectiveTracker', '__ZTV35CAchievementTFSpy_SpyBumpCloakedSpy.txt': 'CAchievementTFSpy_SpyBumpCloakedSpy', '__ZTV30CConfirmApplyStrangifierDialog.txt': 'CConfirmApplyStrangifierDialog', '__ZTV9CClassMap.txt': 'CClassMap', '__ZTV24CSOEconGameAccountClient.txt': 'CSOEconGameAccountClient', '__ZTVN5GCSDK12CProtoBufMsgI26CMsgCraftHalloweenOfferingEE.txt': 'GCSDK::CProtoBufMsg<CMsgCraftHalloweenOffering>', '__ZTV8CAmmoDef.txt': 'CAmmoDef', '__ZTV40CProportionalIntWithScreenspacePropertyY.txt': 'CProportionalIntWithScreenspacePropertyY', '__ZTV8CHudChat.txt': 'CHudChat', '__ZTVN4vgui13ListViewPanelE.txt': 'vgui::ListViewPanel', '__ZTV12CDetailModel.txt': 'CDetailModel', '__ZTVN8CryptoPP17EuclideanDomainOfINS_7IntegerEEE.txt': 'CryptoPP::EuclideanDomainOf<CryptoPP::Integer>', '__ZTV6C_Team.txt': 'C_Team', '__ZTV8CTFInput.txt': 'CTFInput', '__ZTV38CBuildingStatusItem_TeleporterEntrance.txt': 'CBuildingStatusItem_TeleporterEntrance', '__ZTV9CCallbackIN5GCSDK9CGCClientE20GCMessageAvailable_tLb0EE.txt': 'CCallback<GCSDK::CGCClient, GCMessageAvailable_t, false>', '__ZTV11C_TFCleaver.txt': 'C_TFCleaver', '__ZTV37CAchievementTFPowerhouse_FastFinalCap.txt': 'CAchievementTFPowerhouse_FastFinalCap', '__ZTV21CTFFreezePanelCallout.txt': 'CTFFreezePanelCallout', '__ZTV20C_OP_OscillateVector.txt': 'C_OP_OscillateVector', '__ZTV15CMsgAMSendEmail.txt': 'CMsgAMSendEmail', '__ZTV33CAchievementTFScout_StunIntoTrain.txt': 'CAchievementTFScout_StunIntoTrain', '__ZTV17CTFItemDefinition.txt': 'CTFItemDefinition', '__ZTVN4vgui6ButtonE.txt': 'vgui::Button', '__ZTVN5GCSDK6CGCMsgI29MsgGCCheckItemPreviewStatus_tEE.txt': 'GCSDK::CGCMsg<MsgGCCheckItemPreviewStatus_t>', '__ZTV24C_TFSharedContentManager.txt': 'C_TFSharedContentManager', '__ZTV46CAchievementTFEngineer_SentryKillLifetimeGrind.txt': 'CAchievementTFEngineer_SentryKillLifetimeGrind', '__ZTV35COfflinePractice_ModeSelectionPanel.txt': 'COfflinePractice_ModeSelectionPanel', '__ZTV24CLoadoutItemOptionsPanel.txt': 'CLoadoutItemOptionsPanel', '__ZTV8CRagdoll.txt': 'CRagdoll', '__ZTVN5GCSDK12CProtoBufMsgI27CMsgGCQuestComplete_RequestEE.txt': 'GCSDK::CProtoBufMsg<CMsgGCQuestComplete_Request>', '__ZTV25CTraceFilterIgnoreObjects.txt': 'CTraceFilterIgnoreObjects', '__ZTV32CMsgGCIncrementKillCountResponse.txt': 'CMsgGCIncrementKillCountResponse', '__ZTV32C_TFProjectile_SpellLightningOrb.txt': 'C_TFProjectile_SpellLightningOrb', '__ZTVN11CTextWindow9CMOTDHTMLE.txt': 'CTextWindow::CMOTDHTML', '__ZTV35CMsgGCRequestStoreSalesDataResponse.txt': 'CMsgGCRequestStoreSalesDataResponse', '__ZTV19CMsgGC_Match_Result.txt': 'CMsgGC_Match_Result', '__ZTV27CParticleOperatorDefinitionI21C_INIT_VelocityRandomE.txt': 'CParticleOperatorDefinition<C_INIT_VelocityRandom>', '__ZTV37CAchievementTFSniper_KillChargedMedic.txt': 'CAchievementTFSniper_KillChargedMedic', '__ZTV21CVGuiScreenEnumerator.txt': 'CVGuiScreenEnumerator', '__ZTV27CParticleOperatorDefinitionI12C_OP_SpinYawE.txt': 'CParticleOperatorDefinition<C_OP_SpinYaw>', '__ZTV21CPASAttenuationFilter.txt': 'CPASAttenuationFilter', '__ZTV25CBaseAnimatedTextureProxy.txt': 'CBaseAnimatedTextureProxy', '__ZTV15CSOItemCriteria.txt': 'CSOItemCriteria', '__ZTV40CAchievementTFSniper_DominateEnemySniper.txt': 'CAchievementTFSniper_DominateEnemySniper', '__ZTV10C_TFWrench.txt': 'C_TFWrench', '__ZTV24CEconPreviewNotification.txt': 'CEconPreviewNotification', '__ZTV16CBaseHudChatLine.txt': 'CBaseHudChatLine', '__ZTVN4vgui20CTreeViewListControlE.txt': 'vgui::CTreeViewListControl', '__ZTVN5GCSDK12CProtoBufMsgI21CMsgDevNewItemRequestEE.txt': 'GCSDK::CProtoBufMsg<CMsgDevNewItemRequest>', '__ZTVN5GCSDK12CProtoBufMsgI28CMsgCreateOrUpdatePartyReplyEE.txt': 'GCSDK::CProtoBufMsg<CMsgCreateOrUpdatePartyReply>', '__ZTV40CAchievementTFReplay_YouTube_Views_Tier3.txt': 'CAchievementTFReplay_YouTube_Views_Tier3', '__ZTV14CSubtractProxy.txt': 'CSubtractProxy', '__ZTV17CYouTubeUploadJob.txt': 'CYouTubeUploadJob', '__ZTV43CAchievementTF_MvM_Maps_Rottenburg_PitGrind.txt': 'CAchievementTF_MvM_Maps_Rottenburg_PitGrind', '__ZTV14C_FuncOccluder.txt': 'C_FuncOccluder', '__ZTVN5GCSDK22CProtoBufMsgMemoryPoolI19CMsgExitMatchmakingEE.txt': 'GCSDK::CProtoBufMsgMemoryPool<CMsgExitMatchmaking>', '__ZTV27CMsgGC_GameServer_LevelInfo.txt': 'CMsgGC_GameServer_LevelInfo', '__ZTV16CBaseAchievement.txt': 'CBaseAchievement', '__ZTV27CParticleOperatorDefinitionI20C_INIT_CreationNoiseE.txt': 'CParticleOperatorDefinition<C_INIT_CreationNoise>', '__ZTVN15CUnderWaterView15CRefractionViewE.txt': 'CUnderWaterView::CRefractionView', '__ZTVN5GCSDK12CProtoBufMsgI21CMsgSOMultipleObjectsEE.txt': 'GCSDK::CProtoBufMsg<CMsgSOMultipleObjects>', '__ZTV16CGC_Duel_Results.txt': 'CGC_Duel_Results', '__ZTV21CTFHudObjectiveStatus.txt': 'CTFHudObjectiveStatus', '__ZTVN5GCSDK12CProtoBufMsgI20CMsgTFSaxxyBroadcastEE.txt': 'GCSDK::CProtoBufMsg<CMsgTFSaxxyBroadcast>', '__ZTV28CMsgCreateOrUpdatePartyReply.txt': 'CMsgCreateOrUpdatePartyReply', '__ZTVN5GCSDK22CProtoBufMsgMemoryPoolI20CMsgSetItemPositionsEE.txt': 'GCSDK::CProtoBufMsgMemoryPool<CMsgSetItemPositions>', '__ZTV34CWorkshop_GetContributors_Response.txt': 'CWorkshop_GetContributors_Response', '__ZTV18CMsgPackageLicense.txt': 'CMsgPackageLicense', '__ZTV28CAchievementTF_MvM_DefendCap.txt': 'CAchievementTF_MvM_DefendCap', '__ZTV28CSchemaAttributeType_Default.txt': 'CSchemaAttributeType_Default', '__ZTV48CAchievementTFSoldier_KillWithEqualizerWhileHurt.txt': 'CAchievementTFSoldier_KillWithEqualizerWhileHurt', '__ZTV27CTextureScrollMaterialProxy.txt': 'CTextureScrollMaterialProxy', '__ZTV43CAchievementTFScout_BackscatterKillSpyGrind.txt': 'CAchievementTFScout_BackscatterKillSpyGrind', '__ZTV17C_TFBall_Ornament.txt': 'C_TFBall_Ornament', '__ZTV34CAchievementTFSpy_AchieveProgress1.txt': 'CAchievementTFSpy_AchieveProgress1', '__ZTV8CUserCmd.txt': 'CUserCmd', '__ZTVN5GCSDK10CMsgBase_tINS_12GCMsgHdrEx_tEEE.txt': 'GCSDK::CMsgBase_t<GCSDK::GCMsgHdrEx_t>', '__ZTV20CConfirmDecodeDialog.txt': 'CConfirmDecodeDialog', '__ZTV24CGCLoanerRequestResponse.txt': 'CGCLoanerRequestResponse', '__ZTV10C_TESparks.txt': 'C_TESparks', '__ZTV30C_TFWeaponPDA_Engineer_Destroy.txt': 'C_TFWeaponPDA_Engineer_Destroy', '__ZTV15C_TETFExplosion.txt': 'C_TETFExplosion', '__ZTVN5GCSDK22CProtoBufMsgMemoryPoolI38CMsgTFFreeTrialChooseMostHelpfulFriendEE.txt': 'GCSDK::CProtoBufMsgMemoryPool<CMsgTFFreeTrialChooseMostHelpfulFriend>', '__ZTV17C_BonusDuckPickup.txt': 'C_BonusDuckPickup', '__ZTV15CCallbackManualI28CSteamWorksGameStatsUploader24GameStatsSessionIssued_tLb0EE.txt': 'CCallbackManual<CSteamWorksGameStatsUploader, GameStatsSessionIssued_t, false>', '__ZTV14CRecordingList.txt': 'CRecordingList', '__ZTV17C_TFMechanicalArm.txt': 'C_TFMechanicalArm', '__ZTV12CExScrollBar.txt': 'CExScrollBar', '__ZTVN8CryptoPP14NameValuePairsE.txt': 'CryptoPP::NameValuePairs', '__ZTV12C_TFCrossbow.txt': 'C_TFCrossbow', '__ZTV13CCallbackImplILi24EE.txt': 'CCallbackImpl<24>', '__ZTV24CDeliverGiftSelectDialog.txt': 'CDeliverGiftSelectDialog', '__ZTV15CMemberFunctor0IP18CParallelProcessorIP15C_BaseAnimating21CFuncJobItemProcessorIS2_EEMS5_FvvE12CRefCounted1I8CFunctor20CRefCountServiceBaseILb1E6CRefMTEE18CFuncMemPolicyNoneE.txt': 'CMemberFunctor0<CParallelProcessor<C_BaseAnimating*, CFuncJobItemProcessor<C_BaseAnimating*> >*, void (CParallelProcessor<C_BaseAnimating*, CFuncJobItemProcessor<C_BaseAnimating*> >::*)(), CRefCounted1<CFunctor, CRefCountServiceBase<true, CRefMT> >, CFuncMemPolicyNone>', '__ZTV12C_TEBeamRing.txt': 'C_TEBeamRing', '__ZTV42CAchievementTFSniper_Consolation_Backstabs.txt': 'CAchievementTFSniper_Consolation_Backstabs', '__ZTV24CEnginePostMaterialProxy.txt': 'CEnginePostMaterialProxy', '__ZTV20CMsgSetItemPositions.txt': 'CMsgSetItemPositions', '__ZTV32CMsgGCMsgSetOptions_MessageRange.txt': 'CMsgGCMsgSetOptions_MessageRange', '__ZTV26CHudItemEffectMeter_WeaponI14C_TFWeaponBaseE.txt': 'CHudItemEffectMeter_Weapon<C_TFWeaponBase>', '__ZTV35CAchievementTFChristmasCollectGifts.txt': 'CAchievementTFChristmasCollectGifts', '__ZTV34CAchievementTFSpy_SpyBackstabGrind.txt': 'CAchievementTFSpy_SpyBackstabGrind', '__ZTVN6google8protobuf8internal24GeneratedExtensionFinderE.txt': 'google::protobuf::internal::GeneratedExtensionFinder', '__ZTV65CAttribute_DynamicRecipeComponent_COMPAT_NEVER_SERIALIZE_THIS_OUT.txt': 'CAttribute_DynamicRecipeComponent_COMPAT_NEVER_SERIALIZE_THIS_OUT', '__ZTVN5GCSDK12CProtoBufMsgI34CMsgLeaveGameAndPrepareToJoinPartyEE.txt': 'GCSDK::CProtoBufMsg<CMsgLeaveGameAndPrepareToJoinParty>', '__ZTV30CMsgLookupMultipleAccountNames.txt': 'CMsgLookupMultipleAccountNames', '__ZTV14CGCMsgTFSyncEx.txt': 'CGCMsgTFSyncEx', '__ZTVN4vgui16RichTextInteriorE.txt': 'vgui::RichTextInterior', '__ZTV12C_TEBeamEnts.txt': 'C_TEBeamEnts', '__ZTV35CAchievementTFSoldier_BuffTeammates.txt': 'CAchievementTFSoldier_BuffTeammates', '__ZTVN5GCSDK12CProtoBufMsgI13CMsgSortItemsEE.txt': 'GCSDK::CProtoBufMsg<CMsgSortItems>', '__ZTV27CParticleOperatorDefinitionI17C_OP_DistanceToCPE.txt': 'CParticleOperatorDefinition<C_OP_DistanceToCP>', '__ZTV25CTFWaitingForPlayersPanel.txt': 'CTFWaitingForPlayersPanel', '__ZTV13CPanelFactoryI19CObjectControlPanel20VGuiScreenInitData_tE.txt': 'CPanelFactory<CObjectControlPanel, VGuiScreenInitData_t>', '__ZTV19CGCToGCMsgMasterAck.txt': 'CGCToGCMsgMasterAck', '__ZTV23CEconLootListDefinition.txt': 'CEconLootListDefinition', '__ZTV19CTFAnnotationsPanel.txt': 'CTFAnnotationsPanel', '__ZTV26CHudItemEffectMeter_WeaponI16C_TFFlameThrowerE.txt': 'CHudItemEffectMeter_Weapon<C_TFFlameThrower>', '__ZTV17CPlayerSpeedProxy.txt': 'CPlayerSpeedProxy', '__ZTV38CGCToGCMsgMasterStartupComplete_GCInfo.txt': 'CGCToGCMsgMasterStartupComplete_GCInfo', '__ZTV33CAchievementTFPyro_KillUnderwater.txt': 'CAchievementTFPyro_KillUnderwater', '__ZTVN8CryptoPP12IteratedHashIjNS_10EnumToTypeINS_9ByteOrderELi1EEELj64ENS_18HashTransformationEEE.txt': 'CryptoPP::IteratedHash<unsigned int, CryptoPP::EnumToType<CryptoPP::ByteOrder, 1>, 64u, CryptoPP::HashTransformation>', '__ZTV9CCallbackIN4vgui4HTMLE21HTML_FileOpenDialog_tLb0EE.txt': 'CCallback<vgui::HTML, HTML_FileOpenDialog_t, false>', '__ZTV23CTFGenericConfirmDialog.txt': 'CTFGenericConfirmDialog', '__ZTV29C_OP_SetControlPointPositions.txt': 'C_OP_SetControlPointPositions', '__ZTV19CBasicLifeInfoPanel.txt': 'CBasicLifeInfoPanel', '__ZTV22CMvMVictoryMannUpEntry.txt': 'CMvMVictoryMannUpEntry', '__ZTV35CViewEffectsSaveRestoreBlockHandler.txt': 'CViewEffectsSaveRestoreBlockHandler', '__ZTV27CParticleOperatorDefinitionI16C_OP_VectorNoiseE.txt': 'CParticleOperatorDefinition<C_OP_VectorNoise>', '__ZTV40CAchievementTFSnakewater_DoubleAirDeaths.txt': 'CAchievementTFSnakewater_DoubleAirDeaths', '__ZTV27CTFFlagEventTypeRestriction.txt': 'CTFFlagEventTypeRestriction', '__ZTV22C_TFProjectile_JarMilk.txt': 'C_TFProjectile_JarMilk', '__ZTV15CTFPlayerShared.txt': 'CTFPlayerShared', '__ZTV36CAchievementTFSniper_ScoutMidairKill.txt': 'CAchievementTFSniper_ScoutMidairKill', '__ZTV36CAchievementTFEngineer_BuildingCarry.txt': 'CAchievementTFEngineer_BuildingCarry', '__ZTV21CInterpolatedVarArrayI6QAngleLi24EE.txt': 'CInterpolatedVarArray<QAngle, 24>', '__ZTV10C_TESprite.txt': 'C_TESprite', '__ZTVN5GCSDK12CProtoBufMsgI44CMsgGC_Client2GCEconPreviewDataBlockResponseEE.txt': 'GCSDK::CProtoBufMsg<CMsgGC_Client2GCEconPreviewDataBlockResponse>', '__ZTV40CMsgGCMsgWebAPIJobRequestForwardResponse.txt': 'CMsgGCMsgWebAPIJobRequestForwardResponse', '__ZTVN5GCSDK12CProtoBufMsgI31CMsgSetItemEffectVerticalOffsetEE.txt': 'GCSDK::CProtoBufMsg<CMsgSetItemEffectVerticalOffset>', '__ZTV27CMsgTFCoaching_AddToCoaches.txt': 'CMsgTFCoaching_AddToCoaches', '__ZTV17CAttributeManager.txt': 'CAttributeManager', '__ZTV35CAchievementTFDoomsday_KillCarriers.txt': 'CAchievementTFDoomsday_KillCarriers', '__ZTV20CMsgReplicateConVars.txt': 'CMsgReplicateConVars', '__ZTV27CTFGenericStringRestriction.txt': 'CTFGenericStringRestriction', '__ZTV30C_TeamplayRoundBasedRulesProxy.txt': 'C_TeamplayRoundBasedRulesProxy', '__ZTV38CAchievementTFFoundry_AchieveProgress1.txt': 'CAchievementTFFoundry_AchieveProgress1', '__ZTVN5GCSDK12CProtoBufMsgI23CMsgGCRemoveUpgradeCardEE.txt': 'GCSDK::CProtoBufMsg<CMsgGCRemoveUpgradeCard>', '__ZTV39CAchievementTFSoldier_ParachuteDistance.txt': 'CAchievementTFSoldier_ParachuteDistance', '__ZTV18CGCMsgMemCachedGet.txt': 'CGCMsgMemCachedGet', '__ZTV32CAchievementTFMedic_ChargeJuggle.txt': 'CAchievementTFMedic_ChargeJuggle', '__ZTV29CTraceFilterEntityIgnoreOther.txt': 'CTraceFilterEntityIgnoreOther', '__ZTV27CCraftingItemSelectionPanel.txt': 'CCraftingItemSelectionPanel', '__ZTV24CProportionalIntProperty.txt': 'CProportionalIntProperty', '__ZTV10CFracProxy.txt': 'CFracProxy', '__ZTV36CAchievementTFScout_AchieveProgress1.txt': 'CAchievementTFScout_AchieveProgress1', '__ZTV14IHasAttributes.txt': 'IHasAttributes', '__ZTV27CMsgGCClientMarketDataEntry.txt': 'CMsgGCClientMarketDataEntry', '__ZTVN12C_EconEntity29NetworkVar_m_AttributeManagerE.txt': 'C_EconEntity::NetworkVar_m_AttributeManager', '__ZTV18CReplayItemManager.txt': 'CReplayItemManager', '__ZTV12C_TFStunBall.txt': 'C_TFStunBall', '__ZTV18C_OP_BasicMovement.txt': 'C_OP_BasicMovement', '__ZTV18C_SoundscapeSystem.txt': 'C_SoundscapeSystem', '__ZTV26CHudBaseAchievementTracker.txt': 'CHudBaseAchievementTracker', '__ZTV15CIPLocationInfo.txt': 'CIPLocationInfo', '__ZTV36CAchievementTFSpy_SpyRevengeBackstab.txt': 'CAchievementTFSpy_SpyRevengeBackstab', '__ZTV16C_BaseTempEntity.txt': 'C_BaseTempEntity', '__ZTV16CMsgHttpResponse.txt': 'CMsgHttpResponse', '__ZTV13vehicleview_t.txt': 'vehicleview_t', '__ZTV19CGCMsgGetIPLocation.txt': 'CGCMsgGetIPLocation', '__ZTV14ConVar_m_pitch.txt': 'ConVar_m_pitch', '__ZTVN5GCSDK12CProtoBufMsgI11CMsgUseItemEE.txt': 'GCSDK::CProtoBufMsg<CMsgUseItem>', '__ZTV8CHudVote.txt': 'CHudVote', '__ZTV14CTFStorePanel1.txt': 'CTFStorePanel1', '__ZTV30CAchievementTFGetHealedByEnemy.txt': 'CAchievementTFGetHealedByEnemy', '__ZTV15CReplayTipLabel.txt': 'CReplayTipLabel', '__ZTV27C_INIT_LifespanFromVelocity.txt': 'C_INIT_LifespanFromVelocity', '__ZTVN4vgui8URLLabelE.txt': 'vgui::URLLabel', '__ZTV19C_TFShotgun_Soldier.txt': 'C_TFShotgun_Soldier', '__ZTV8CFmtStrNILi256ELb0EE.txt': 'CFmtStrN<256, false>', '__ZTV7CFXLine.txt': 'CFXLine', '__ZTV13CSavingDialog.txt': 'CSavingDialog', '__ZTV25CVGUILocalizationProvider.txt': 'CVGUILocalizationProvider', '__ZTV14CVictorySplash.txt': 'CVictorySplash', '__ZTV40CMsgGC_GameServer_ServerModificationItem.txt': 'CMsgGC_GameServer_ServerModificationItem', '__ZTV38CAchievementTFSoldier_CrouchRocketJump.txt': 'CAchievementTFSoldier_CrouchRocketJump', '__ZTVN4vgui9ScrollBarE.txt': 'vgui::ScrollBar', '__ZTV27C_INIT_InitialVelocityNoise.txt': 'C_INIT_InitialVelocityNoise', '__ZTV15CSOTFPlayerInfo.txt': 'CSOTFPlayerInfo', '__ZTV16C_VoteController.txt': 'C_VoteController', '__ZTV41CAttributeIterator_GetTypedAttributeValueIffE.txt': 'CAttributeIterator_GetTypedAttributeValue<float, float>', '__ZTV15CTFGameMovement.txt': 'CTFGameMovement', '__ZTV25C_TFRocketLauncher_Mortar.txt': 'C_TFRocketLauncher_Mortar', '__ZTV64CWorkshop_PopulateItemDescriptions_Request_SingleItemDescription.txt': 'CWorkshop_PopulateItemDescriptions_Request_SingleItemDescription', '__ZTV16CDefaultAccessor.txt': 'CDefaultAccessor', '__ZTV8CTFParty.txt': 'CTFParty', '__ZTV25C_MegaBombExplosionEffect.txt': 'C_MegaBombExplosionEffect', '__ZTV27CParticleOperatorDefinitionI22C_INIT_CreateAlongPathE.txt': 'CParticleOperatorDefinition<C_INIT_CreateAlongPath>', '__ZTV13C_WaterBullet.txt': 'C_WaterBullet', '__ZTV19IGameEventListener2.txt': 'IGameEventListener2', '__ZTV9CCallbackI19CClientSteamContext26SteamServersDisconnected_tLb0EE.txt': 'CCallback<CClientSteamContext, SteamServersDisconnected_t, false>', '__ZTV38CAchievementTFHeavy_StandNearDispenser.txt': 'CAchievementTFHeavy_StandNearDispenser', '__ZTV26CConfirmDeleteReplayDialog.txt': 'CConfirmDeleteReplayDialog', '__ZTVN5GCSDK22CProtoBufMsgMemoryPoolI23CMsgTFVoteKickBanPlayerEE.txt': 'GCSDK::CProtoBufMsgMemoryPool<CMsgTFVoteKickBanPlayer>', '__ZTV16CWaveStatusPanel.txt': 'CWaveStatusPanel', '__ZTV17CMsgClientGoodbye.txt': 'CMsgClientGoodbye', '__ZTV16CHudAccountPanel.txt': 'CHudAccountPanel', '__ZTV26CHudArenaCapPointCountdown.txt': 'CHudArenaCapPointCountdown', '__ZTV19CEconItemDefinition.txt': 'CEconItemDefinition', '__ZTV26CFloatingAchievementNumber.txt': 'CFloatingAchievementNumber', '__ZTV15CTitleEditPanel.txt': 'CTitleEditPanel', '__ZTV35CClientItemBroadcastNotificationJob.txt': 'CClientItemBroadcastNotificationJob', '__ZTV21CTFClassTipsListPanel.txt': 'CTFClassTipsListPanel', '__ZTV34CAchievementTFHalloweenPumpkinKill.txt': 'CAchievementTFHalloweenPumpkinKill', '__ZTV15C_TELargeFunnel.txt': 'C_TELargeFunnel', '__ZTV26CClientDisplayNotification.txt': 'CClientDisplayNotification', '__ZTV16CSOTFPartyInvite.txt': 'CSOTFPartyInvite', '__ZTV24C_INIT_CreateInHierarchy.txt': 'C_INIT_CreateInHierarchy', '__ZTV43CAchievementTFSpy_SpyBackstabCappingEnemies.txt': 'CAchievementTFSpy_SpyBackstabCappingEnemies', '__ZTV23CMsgConsumableExhausted.txt': 'CMsgConsumableExhausted', '__ZTV9CCallbackIN4vgui4HTMLE26HTML_CanGoBackAndForward_tLb0EE.txt': 'CCallback<vgui::HTML, HTML_CanGoBackAndForward_t, false>', '__ZTV19CTFItemDiscardPanel.txt': 'CTFItemDiscardPanel', '__ZTV26CProportionalFloatProperty.txt': 'CProportionalFloatProperty', '__ZTV33CAchievementTF_DominateForGoggles.txt': 'CAchievementTF_DominateForGoggles', '__ZTV10ConCommand.txt': 'ConCommand', '__ZTV41CAchievementTFHalloweenHelltowerWinRounds.txt': 'CAchievementTFHalloweenHelltowerWinRounds', '__ZTV32CGCItemPreviewExpireNotification.txt': 'CGCItemPreviewExpireNotification', '__ZTVN4vgui11BaseTooltipE.txt': 'vgui::BaseTooltip', '__ZTV23CStoreItemControlsPanel.txt': 'CStoreItemControlsPanel', '__ZTV27CParticleOperatorDefinitionI24C_OP_OrientTo2dDirectionE.txt': 'CParticleOperatorDefinition<C_OP_OrientTo2dDirection>', '__ZTV29CMsgTFJoinChatChannelResponse.txt': 'CMsgTFJoinChatChannelResponse', '__ZTVN5GCSDK12CProtoBufMsgI15CMsgClientHelloEE.txt': 'GCSDK::CProtoBufMsg<CMsgClientHello>', '__ZTV21CSOTFSpyVsEngyWarData.txt': 'CSOTFSpyVsEngyWarData', '__ZTV39CAchievementTFEngineer_SentryAvengesYou.txt': 'CAchievementTFEngineer_SentryAvengesYou', '__ZTV9IPresence.txt': 'IPresence', '__ZTV26CHudItemEffectMeter_WeaponI15C_TFSniperRifleE.txt': 'CHudItemEffectMeter_Weapon<C_TFSniperRifle>', '__ZTV27CParticleOperatorDefinitionI20C_OP_OscillateScalarE.txt': 'CParticleOperatorDefinition<C_OP_OscillateScalar>', '__ZTV23CMsgMatchmakingProgress.txt': 'CMsgMatchmakingProgress', '__ZTVN5GCSDK12CProtoBufMsgI23CMsgGCStorePurchaseInitEE.txt': 'GCSDK::CProtoBufMsg<CMsgGCStorePurchaseInit>', '__ZTV37CAchievementTFMedic_AssistChargeScout.txt': 'CAchievementTFMedic_AssistChargeScout', '__ZTV21C_PasstimeBallReticle.txt': 'C_PasstimeBallReticle', '__ZTV17C_HalloweenPickup.txt': 'C_HalloweenPickup', '__ZTV30CAchievementTFSoldier_KillPyro.txt': 'CAchievementTFSoldier_KillPyro', '__ZTVN8CryptoPP7Integer12DivideByZeroE.txt': 'CryptoPP::Integer::DivideByZero', '__ZTV18CHudBowChargeMeter.txt': 'CHudBowChargeMeter', '__ZTV27CTraceFilterSkipTwoEntities.txt': 'CTraceFilterSkipTwoEntities', '__ZTVN5GCSDK12CProtoBufMsgI28CMsgSOCacheSubscriptionCheckEE.txt': 'GCSDK::CProtoBufMsg<CMsgSOCacheSubscriptionCheck>', '__ZTV12C_TFBat_Fish.txt': 'C_TFBat_Fish', '__ZTV24IInventoryUpdateListener.txt': 'IInventoryUpdateListener', '__ZTV12CHudMiniGame.txt': 'CHudMiniGame', '__ZTV26CMsgGCShuffleCrateContents.txt': 'CMsgGCShuffleCrateContents', '__ZTV21CPanelMetaClassMgrImp.txt': 'CPanelMetaClassMgrImp', '__ZTVN4vgui19CircularProgressBarE.txt': 'vgui::CircularProgressBar', '__ZTV14CImpactOverlay.txt': 'CImpactOverlay', '__ZTV40CAchievementTFHalloweenDoomsdayMilestone.txt': 'CAchievementTFHalloweenDoomsdayMilestone', '__ZTV26CMsgGCToGCSOCacheSubscribe.txt': 'CMsgGCToGCSOCacheSubscribe', '__ZTV12CBeamSegDraw.txt': 'CBeamSegDraw', '__ZTV27CParticleOperatorDefinitionI22C_INIT_RemapCPtoScalarE.txt': 'CParticleOperatorDefinition<C_INIT_RemapCPtoScalar>', '__ZTV25CBasicTraining_ClassPanel.txt': 'CBasicTraining_ClassPanel', '__ZTV39CAchievementTFMedic_SimultaneousCharges.txt': 'CAchievementTFMedic_SimultaneousCharges', '__ZTV32CAchievementTFSoldier_FreezeGibs.txt': 'CAchievementTFSoldier_FreezeGibs', '__ZTV20CBoundedCvar_Predict.txt': 'CBoundedCvar_Predict', '__ZTV4CLCD.txt': 'CLCD', '__ZTV27CParticleOperatorDefinitionI24C_INIT_RandomTrailLengthE.txt': 'CParticleOperatorDefinition<C_INIT_RandomTrailLength>', '__ZTV16C_FuncForceField.txt': 'C_FuncForceField', '__ZTVN4vgui5FrameE.txt': 'vgui::Frame', '__ZTV16C_OP_MaxVelocity.txt': 'C_OP_MaxVelocity', '__ZTV16CShadowDepthView.txt': 'CShadowDepthView', '__ZTV35CAchievementTFDemoman_AirBurstKills.txt': 'CAchievementTFDemoman_AirBurstKills', '__ZTV20CNameToolUsageDialog.txt': 'CNameToolUsageDialog', '__ZTVN5GCSDK12CProtoBufMsgI28CMsgTFCoaching_CoachJoinGameEE.txt': 'GCSDK::CProtoBufMsg<CMsgTFCoaching_CoachJoinGame>', '__ZTV22C_WaterExplosionEffect.txt': 'C_WaterExplosionEffect', '__ZTV16C_RobotDispenser.txt': 'C_RobotDispenser', '__ZTV20C_MerasmusBombEffect.txt': 'C_MerasmusBombEffect', '__ZTV33CAchievementTFHeavy_EatSandwiches.txt': 'CAchievementTFHeavy_EatSandwiches', '__ZTV38CAchievementTFEngineer_WasteMetalGrind.txt': 'CAchievementTFEngineer_WasteMetalGrind', '__ZTV17CProxyInvulnLevel.txt': 'CProxyInvulnLevel', '__ZTV23CNetGraphPanelInterface.txt': 'CNetGraphPanelInterface', '__ZTV34CAchievementTFHeavy_SurviveCrocket.txt': 'CAchievementTFHeavy_SurviveCrocket', '__ZTV13CBitmapButton.txt': 'CBitmapButton', '__ZTV10C_SteamJet.txt': 'C_SteamJet', '__ZTV31CAchievementTFHeavy_AssistGrind.txt': 'CAchievementTFHeavy_AssistGrind', '__ZTV16C_INIT_RandomYaw.txt': 'C_INIT_RandomYaw', '__ZTV22CMsgAMGetUserGameStats.txt': 'CMsgAMGetUserGameStats', '__ZTV43CMsgUpdateHalloweenMerasmusLootLevel_Player.txt': 'CMsgUpdateHalloweenMerasmusLootLevel_Player', '__ZTV10CStorePage.txt': 'CStorePage', '__ZTV14CWaitingDialog.txt': 'CWaitingDialog', '__ZTVN5GCSDK12CProtoBufMsgI23CMsgTFRequestTF2FriendsEE.txt': 'GCSDK::CProtoBufMsg<CMsgTFRequestTF2Friends>', '__ZTV32CBasicTraining_ClassDetailsPanel.txt': 'CBasicTraining_ClassDetailsPanel', '__ZTV41CAchievementTFSpy_SpyBackstabMedicCharged.txt': 'CAchievementTFSpy_SpyBackstabMedicCharged', '__ZTV12CLoadingDisc.txt': 'CLoadingDisc', '__ZTVN5GCSDK12CProtoBufMsgI39CMsgGC_Client_UseServerModificationItemEE.txt': 'GCSDK::CProtoBufMsg<CMsgGC_Client_UseServerModificationItem>', '__ZTV19AbuseIncidentData_t.txt': 'AbuseIncidentData_t', '__ZTV17C_ObjectSentrygun.txt': 'C_ObjectSentrygun', '__ZTVN8CryptoPP18BERSequenceDecoderE.txt': 'CryptoPP::BERSequenceDecoder', '__ZTV41CAchievementTF_MvM_Maps_Manhattan_NoGates.txt': 'CAchievementTF_MvM_Maps_Manhattan_NoGates', '__ZTV18CCopyableUtlVectorIf10CUtlMemoryIfiEE.txt': 'CCopyableUtlVector<float, CUtlMemory<float, int> >', '__ZTV27CQuestNotification_NewQuest.txt': 'CQuestNotification_NewQuest', '__ZTV32CAchievementTFHeavy_HealMedikits.txt': 'CAchievementTFHeavy_HealMedikits', '__ZTV27CParticleOperatorDefinitionI22C_INIT_InheritVelocityE.txt': 'CParticleOperatorDefinition<C_INIT_InheritVelocity>', '__ZTV13CTFItemSchema.txt': 'CTFItemSchema', '__ZTV17IMinigameAutoList.txt': 'IMinigameAutoList', '__ZTV16C_TFWearableItem.txt': 'C_TFWearableItem', '__ZTV29CMsgGCClientMarketDataRequest.txt': 'CMsgGCClientMarketDataRequest', '__ZTV20CMsgGCQuestCompleted.txt': 'CMsgGCQuestCompleted', '__ZTV39CMsgGCQuestObjective_RequestLoanerItems.txt': 'CMsgGCQuestObjective_RequestLoanerItems', '__ZTV12CTFIntroMenu.txt': 'CTFIntroMenu', '__ZTV34CTFHudRobotDestruction_ActiveImage.txt': 'CTFHudRobotDestruction_ActiveImage', '__ZTV37CAchievementTFHalloweenDominateForHat.txt': 'CAchievementTFHalloweenDominateForHat', '__ZTV20CRefractiveGlassView.txt': 'CRefractiveGlassView', '__ZTV41CGCMsgGC_SpyVsEngyWar_GlobalStatsResponse.txt': 'CGCMsgGC_SpyVsEngyWar_GlobalStatsResponse', '__ZTV17CLoadingDiscPanel.txt': 'CLoadingDiscPanel', '__ZTV28CMsgGCUpdateSubGCSessionInfo.txt': 'CMsgGCUpdateSubGCSessionInfo', '__ZTV29CMsgTFQuickplay_PlayerJoining.txt': 'CMsgTFQuickplay_PlayerJoining', '__ZTV21CProxyCommunityWeapon.txt': 'CProxyCommunityWeapon', '__ZTV27CSelectPlayerForCoachDialog.txt': 'CSelectPlayerForCoachDialog', '__ZTV20CMsgItemAcknowledged.txt': 'CMsgItemAcknowledged', '__ZTV22C_INIT_CreateWithinBox.txt': 'C_INIT_CreateWithinBox', '__ZTV20CGCMsgGetSystemStats.txt': 'CGCMsgGetSystemStats', '__ZTVN22CItemSelectionCriteria15CFloatConditionE.txt': 'CItemSelectionCriteria::CFloatCondition', '__ZTV13C_TFSpellBook.txt': 'C_TFSpellBook', '__ZTV19CEconTool_ClaimCode.txt': 'CEconTool_ClaimCode', '__ZTV21CAnimatedTextureProxy.txt': 'CAnimatedTextureProxy', '__ZTV46CAchievementTF_MvM_Maps_Manhattan_BombBotGrind.txt': 'CAchievementTF_MvM_Maps_Manhattan_BombBotGrind', '__ZTVN5GCSDK22CProtoBufMsgMemoryPoolI32CMsgGCIncrementKillCountResponseEE.txt': 'GCSDK::CProtoBufMsgMemoryPool<CMsgGCIncrementKillCountResponse>', '__ZTV13CEmberEmitter.txt': 'CEmberEmitter', '__ZTV18CCopyableUtlVectorIPN22CMvMVictoryMannUpEntry12CMvMLootItemE10CUtlMemoryIS2_iEE.txt': 'CCopyableUtlVector<CMvMVictoryMannUpEntry::CMvMLootItem*, CUtlMemory<CMvMVictoryMannUpEntry::CMvMLootItem*, int> >', '__ZTVN5GCSDK22CProtoBufMsgMemoryPoolI27CMsgGCQuestComplete_RequestEE.txt': 'GCSDK::CProtoBufMsgMemoryPool<CMsgGCQuestComplete_Request>', '__ZTV11C_TFRagdoll.txt': 'C_TFRagdoll', '__ZTV24C_TFProjectile_SpellBats.txt': 'C_TFProjectile_SpellBats', '__ZTV18CBuildModeNavCombo.txt': 'CBuildModeNavCombo', '__ZTV22C_OP_ControlpointLight.txt': 'C_OP_ControlpointLight', '__ZTVN23CGSaxxyAwardedBroadcast25CSaxxyAwardedNotificationE.txt': 'CGSaxxyAwardedBroadcast::CSaxxyAwardedNotification', '__ZTV9C_OP_Cull.txt': 'C_OP_Cull', '__ZTVN5GCSDK22CProtoBufMsgMemoryPoolI31CMsgTFCoaching_LikeCurrentCoachEE.txt': 'GCSDK::CProtoBufMsgMemoryPool<CMsgTFCoaching_LikeCurrentCoach>', '__ZTV19CStatTrakDigitProxy.txt': 'CStatTrakDigitProxy', '__ZTV15CItemModelPanel.txt': 'CItemModelPanel', '__ZTV17CExponentialProxy.txt': 'CExponentialProxy', '__ZTV18CQuestLogContainer.txt': 'CQuestLogContainer', '__ZTV38CAchievementTFScout_CarrierKillCarrier.txt': 'CAchievementTFScout_CarrierKillCarrier', '__ZTV19CDetailObjectSystem.txt': 'CDetailObjectSystem', '__ZTV39CAchievementTF_MvM_Maps_Rottenburg_Bomb.txt': 'CAchievementTF_MvM_Maps_Rottenburg_Bomb', '__ZTV9CCallbackIN4vgui4HTMLE20HTML_UpdateToolTip_tLb0EE.txt': 'CCallback<vgui::HTML, HTML_UpdateToolTip_t, false>', '__ZTV47CAchievementTFHalloweenDoomsdayRespawnTeammates.txt': 'CAchievementTFHalloweenDoomsdayRespawnTeammates', '__ZTV29C_TFProjectile_ThrowableRepel.txt': 'C_TFProjectile_ThrowableRepel', '__ZTV19CMsgSystemBroadcast.txt': 'CMsgSystemBroadcast', '__ZTVN5GCSDK27CGCSOCacheSubscriptionCheckE.txt': 'GCSDK::CGCSOCacheSubscriptionCheck', '__ZTV5CSave.txt': 'CSave', '__ZTV34CAchievementTF_MvM_SniperKillGroup.txt': 'CAchievementTF_MvM_SniperKillGroup', '__ZTV41CAttributeIterator_GetTypedAttributeValueIjjE.txt': 'CAttributeIterator_GetTypedAttributeValue<unsigned int, unsigned int>', '__ZTVN5GCSDK21CProtoBufSharedObjectI10CSOTFPartyLi2003EEE.txt': 'GCSDK::CProtoBufSharedObject<CSOTFParty, 2003>', '__ZTV20CTFStorePage_Popular.txt': 'CTFStorePage_Popular', '__ZTV31CAchievementTFPyro_FreezeTaunts.txt': 'CAchievementTFPyro_FreezeTaunts', '__ZTVN5GCSDK12CProtoBufMsgI29CMsgGCClientMarketDataRequestEE.txt': 'GCSDK::CProtoBufMsg<CMsgGCClientMarketDataRequest>', '__ZTV40CMsgTFJoinChatChannelResponse_ChatMember.txt': 'CMsgTFJoinChatChannelResponse_ChatMember', '__ZTVSt15basic_streambufIwSt11char_traitsIwEE.txt': 'std::basic_streambuf<wchar_t, std::char_traits<wchar_t> >', '__ZTV33CAchievementTFSpy_SpyCampPosition.txt': 'CAchievementTFSpy_SpyCampPosition', '__ZTVN5GCSDK22CProtoBufMsgMemoryPoolI22CMsgTFThankedBySomeoneEE.txt': 'GCSDK::CProtoBufMsgMemoryPool<CMsgTFThankedBySomeone>', '__ZTV12C_SmokeTrail.txt': 'C_SmokeTrail', '__ZTV10CPVSFilter.txt': 'CPVSFilter', '__ZTVN5GCSDK12CProtoBufMsgI30CMsgLookupMultipleAccountNamesEE.txt': 'GCSDK::CProtoBufMsg<CMsgLookupMultipleAccountNames>', '__ZTV13CMainTargetID.txt': 'CMainTargetID', '__ZTVN5GCSDK22CProtoBufMsgMemoryPoolI27CMsgTFCoaching_AddToCoachesEE.txt': 'GCSDK::CProtoBufMsgMemoryPool<CMsgTFCoaching_AddToCoaches>', '__ZTVN8CryptoPP22BufferedTransformationE.txt': 'CryptoPP::BufferedTransformation', '__ZTV42CAchievementTFSpy_SpyAmbassadorSniperGrind.txt': 'CAchievementTFSpy_SpyAmbassadorSniperGrind', '__ZTV20CMsgGCHUpdateSession.txt': 'CMsgGCHUpdateSession', '__ZTV24C_INIT_MoveBetweenPoints.txt': 'C_INIT_MoveBetweenPoints', '__ZTVN5GCSDK22CProtoBufMsgMemoryPoolI27CMsgGCStorePurchaseFinalizeEE.txt': 'GCSDK::CProtoBufMsgMemoryPool<CMsgGCStorePurchaseFinalize>', '__ZTV18C_MuzzleFlashModel.txt': 'C_MuzzleFlashModel', '__ZTV32CAchievementTFDemoman_QuickKills.txt': 'CAchievementTFDemoman_QuickKills', '__ZTV26CTraceFilterNoNPCsOrPlayer.txt': 'CTraceFilterNoNPCsOrPlayer', '__ZTV16CVGuiScreenPanel.txt': 'CVGuiScreenPanel', '__ZTV21CTFClassTipsItemPanel.txt': 'CTFClassTipsItemPanel', '__ZTV26CHudItemEffectMeter_WeaponI12C_TFRevolverE.txt': 'CHudItemEffectMeter_Weapon<C_TFRevolver>', '__ZTVN6google8protobuf2io20ZeroCopyOutputStreamE.txt': 'google::protobuf::io::ZeroCopyOutputStream', '__ZTVN20CEconItemDescription26CVisibleAttributeDisplayerE.txt': 'CEconItemDescription::CVisibleAttributeDisplayer', '__ZTVN8CryptoPP13AutoSignalingINS_22BufferedTransformationEEE.txt': 'CryptoPP::AutoSignaling<CryptoPP::BufferedTransformation>', '__ZTV29CAchievementTFSniper_PinHeavy.txt': 'CAchievementTFSniper_PinHeavy', '__ZTV14C_TFSodaPopper.txt': 'C_TFSodaPopper', '__ZTV3IClientThinkable.txt': 'IClientThinkable', '__ZTV3IClientNetworkable.txt': 'IClientNetworkable', '__ZTV3IHasOwner.txt': 'IHasOwner', '__ZTV3IClientRenderable.txt': 'IClientRenderable', '__ZTV3IClientEntity.txt': 'IClientEntity', '__ZTV3IClientUnkown.txt': 'IClientUnkown', '__ZTV3IHandleEntity': 'IHandleEntity'}